	.text
	.syntax unified
	.eabi_attribute	67, "2.09"	@ Tag_conformance
	.cpu	cortex-m33
	.eabi_attribute	6, 17	@ Tag_CPU_arch
	.eabi_attribute	7, 77	@ Tag_CPU_arch_profile
	.eabi_attribute	8, 0	@ Tag_ARM_ISA_use
	.eabi_attribute	9, 3	@ Tag_THUMB_ISA_use
	.fpu	fpv5-sp-d16
	.eabi_attribute	27, 1	@ Tag_ABI_HardFP_use
	.eabi_attribute	36, 1	@ Tag_FP_HP_extension
	.eabi_attribute	46, 1	@ Tag_DSP_extension
	.eabi_attribute	34, 1	@ Tag_CPU_unaligned_access
	.eabi_attribute	17, 1	@ Tag_ABI_PCS_GOT_use
	.eabi_attribute	20, 2	@ Tag_ABI_FP_denormal
	.eabi_attribute	21, 0	@ Tag_ABI_FP_exceptions
	.eabi_attribute	23, 1	@ Tag_ABI_FP_number_model
	.eabi_attribute	24, 1	@ Tag_ABI_align_needed
	.eabi_attribute	25, 1	@ Tag_ABI_align_preserved
	.eabi_attribute	28, 1	@ Tag_ABI_VFP_args
	.eabi_attribute	38, 1	@ Tag_ABI_FP_16bit_format
	.eabi_attribute	18, 2	@ Tag_ABI_PCS_wchar_t
	.eabi_attribute	26, 1	@ Tag_ABI_enum_size
	.eabi_attribute	14, 0	@ Tag_ABI_PCS_R9_use
	.file	"GLCD_V2M-MPS2.c"
	.file	1 "C:\\" "Keil_v5\\ARM\\ARMCLANG\\Bin\\..\\include\\stdint.h"
	.file	2 "C:/Users/philo/AppData/Local/Arm/Packs/Keil/V2M-MPS2_IOTKit_BSP/1.5.0/Boards/ARM/V2M-MPS2/Common" "GLCD_V2M-MPS2.c"
	.file	3 "C:/Users/philo/AppData/Local/Arm/Packs/Keil/MDK-Middleware/7.15.0/Board" "Board_GLCD.h"
	.file	4 "C:/Users/philo/AppData/Local/Arm/Packs/Keil/V2M-MPS2_IOTKit_BSP/1.5.0/Boards/ARM/V2M-MPS2/Common" "SMM_MPS2.h"
	.section	.text.GLCD_Initialize,"ax",%progbits
	.hidden	GLCD_Initialize                 @ -- Begin function GLCD_Initialize
	.globl	GLCD_Initialize
	.p2align	2
	.type	GLCD_Initialize,%function
	.code	16                              @ @GLCD_Initialize
	.thumb_func
GLCD_Initialize:
.Lfunc_begin0:
	.loc	2 253 0                         @ C:/Users/philo/AppData/Local/Arm/Packs/Keil/V2M-MPS2_IOTKit_BSP/1.5.0/Boards/ARM/V2M-MPS2/Common/GLCD_V2M-MPS2.c:253:0
	.fnstart
	.cfi_sections .debug_frame
	.cfi_startproc
@ %bb.0:
	.save	{r4, r5, r6, lr}
	push	{r4, r5, r6, lr}
	.cfi_def_cfa_offset 16
	.cfi_offset lr, -4
	.cfi_offset r6, -8
	.cfi_offset r5, -12
	.cfi_offset r4, -16
	ldr	r0, __arm_cp.0_0
	movs	r1, #0
	ldr	r4, __arm_cp.0_1
.Ltmp0:
	.loc	2 279 2 prologue_end            @ C:/Users/philo/AppData/Local/Arm/Packs/Keil/V2M-MPS2_IOTKit_BSP/1.5.0/Boards/ARM/V2M-MPS2/Common/GLCD_V2M-MPS2.c:279:2
	ldr	r6, __arm_cp.0_2
	.loc	2 256 24                        @ C:/Users/philo/AppData/Local/Arm/Packs/Keil/V2M-MPS2_IOTKit_BSP/1.5.0/Boards/ARM/V2M-MPS2/Common/GLCD_V2M-MPS2.c:256:24
	str	r1, [r0, #4]
	.loc	2 257 24                        @ C:/Users/philo/AppData/Local/Arm/Packs/Keil/V2M-MPS2_IOTKit_BSP/1.5.0/Boards/ARM/V2M-MPS2/Common/GLCD_V2M-MPS2.c:257:24
	str	r1, [r0, #36]
	.loc	2 258 24                        @ C:/Users/philo/AppData/Local/Arm/Packs/Keil/V2M-MPS2_IOTKit_BSP/1.5.0/Boards/ARM/V2M-MPS2/Common/GLCD_V2M-MPS2.c:258:24
	str	r1, [r0, #20]
	movs	r1, #3
	.loc	2 259 24                        @ C:/Users/philo/AppData/Local/Arm/Packs/Keil/V2M-MPS2_IOTKit_BSP/1.5.0/Boards/ARM/V2M-MPS2/Common/GLCD_V2M-MPS2.c:259:24
	str	r1, [r0, #32]
	movw	r1, #263
	.loc	2 261 24                        @ C:/Users/philo/AppData/Local/Arm/Packs/Keil/V2M-MPS2_IOTKit_BSP/1.5.0/Boards/ARM/V2M-MPS2/Common/GLCD_V2M-MPS2.c:261:24
	str	r1, [r0]
	movs	r1, #2
	.loc	2 266 24                        @ C:/Users/philo/AppData/Local/Arm/Packs/Keil/V2M-MPS2_IOTKit_BSP/1.5.0/Boards/ARM/V2M-MPS2/Common/GLCD_V2M-MPS2.c:266:24
	str	r1, [r0, #16]
	.loc	2 267 24                        @ C:/Users/philo/AppData/Local/Arm/Packs/Keil/V2M-MPS2_IOTKit_BSP/1.5.0/Boards/ARM/V2M-MPS2/Common/GLCD_V2M-MPS2.c:267:24
	str	r1, [r0, #4]
	.loc	2 271 26                        @ C:/Users/philo/AppData/Local/Arm/Packs/Keil/V2M-MPS2_IOTKit_BSP/1.5.0/Boards/ARM/V2M-MPS2/Common/GLCD_V2M-MPS2.c:271:26
	ldr	r0, [r4]
	orr	r0, r0, #9
	str	r0, [r4]
	.loc	2 273 26                        @ C:/Users/philo/AppData/Local/Arm/Packs/Keil/V2M-MPS2_IOTKit_BSP/1.5.0/Boards/ARM/V2M-MPS2/Common/GLCD_V2M-MPS2.c:273:26
	ldr	r0, [r4]
	bic	r0, r0, #112
	str	r0, [r4]
	.loc	2 278 26                        @ C:/Users/philo/AppData/Local/Arm/Packs/Keil/V2M-MPS2_IOTKit_BSP/1.5.0/Boards/ARM/V2M-MPS2/Common/GLCD_V2M-MPS2.c:278:26
	ldr	r0, [r4]
	bic	r0, r0, #8
	str	r0, [r4]
	.loc	2 279 2                         @ C:/Users/philo/AppData/Local/Arm/Packs/Keil/V2M-MPS2_IOTKit_BSP/1.5.0/Boards/ARM/V2M-MPS2/Common/GLCD_V2M-MPS2.c:279:2
	movs	r0, #1
	blx	r6
.Ltmp1:
	.loc	2 280 26                        @ C:/Users/philo/AppData/Local/Arm/Packs/Keil/V2M-MPS2_IOTKit_BSP/1.5.0/Boards/ARM/V2M-MPS2/Common/GLCD_V2M-MPS2.c:280:26
	ldr	r0, [r4]
	orr	r0, r0, #8
	str	r0, [r4]
	.loc	2 281 2                         @ C:/Users/philo/AppData/Local/Arm/Packs/Keil/V2M-MPS2_IOTKit_BSP/1.5.0/Boards/ARM/V2M-MPS2/Common/GLCD_V2M-MPS2.c:281:2
	movs	r0, #5
	blx	r6
.Ltmp2:
	.loc	2 286 5                         @ C:/Users/philo/AppData/Local/Arm/Packs/Keil/V2M-MPS2_IOTKit_BSP/1.5.0/Boards/ARM/V2M-MPS2/Common/GLCD_V2M-MPS2.c:286:5
	ldr	r5, __arm_cp.0_3
	movs	r0, #234
	movs	r1, #0
	blx	r5
.Ltmp3:
	.loc	2 287 5                         @ C:/Users/philo/AppData/Local/Arm/Packs/Keil/V2M-MPS2_IOTKit_BSP/1.5.0/Boards/ARM/V2M-MPS2/Common/GLCD_V2M-MPS2.c:287:5
	movs	r0, #235
	movs	r1, #32
	blx	r5
.Ltmp4:
	.loc	2 288 5                         @ C:/Users/philo/AppData/Local/Arm/Packs/Keil/V2M-MPS2_IOTKit_BSP/1.5.0/Boards/ARM/V2M-MPS2/Common/GLCD_V2M-MPS2.c:288:5
	movs	r0, #236
	movs	r1, #12
	blx	r5
.Ltmp5:
	.loc	2 289 5                         @ C:/Users/philo/AppData/Local/Arm/Packs/Keil/V2M-MPS2_IOTKit_BSP/1.5.0/Boards/ARM/V2M-MPS2/Common/GLCD_V2M-MPS2.c:289:5
	movs	r0, #237
	movs	r1, #199
	blx	r5
.Ltmp6:
	.loc	2 290 5                         @ C:/Users/philo/AppData/Local/Arm/Packs/Keil/V2M-MPS2_IOTKit_BSP/1.5.0/Boards/ARM/V2M-MPS2/Common/GLCD_V2M-MPS2.c:290:5
	movs	r0, #232
	movs	r1, #56
	blx	r5
.Ltmp7:
	.loc	2 291 5                         @ C:/Users/philo/AppData/Local/Arm/Packs/Keil/V2M-MPS2_IOTKit_BSP/1.5.0/Boards/ARM/V2M-MPS2/Common/GLCD_V2M-MPS2.c:291:5
	movs	r0, #233
	movs	r1, #16
	blx	r5
.Ltmp8:
	.loc	2 292 5                         @ C:/Users/philo/AppData/Local/Arm/Packs/Keil/V2M-MPS2_IOTKit_BSP/1.5.0/Boards/ARM/V2M-MPS2/Common/GLCD_V2M-MPS2.c:292:5
	movs	r0, #241
	movs	r1, #1
	blx	r5
.Ltmp9:
	.loc	2 293 5                         @ C:/Users/philo/AppData/Local/Arm/Packs/Keil/V2M-MPS2_IOTKit_BSP/1.5.0/Boards/ARM/V2M-MPS2/Common/GLCD_V2M-MPS2.c:293:5
	movs	r0, #242
	movs	r1, #16
	blx	r5
.Ltmp10:
	.loc	2 296 5                         @ C:/Users/philo/AppData/Local/Arm/Packs/Keil/V2M-MPS2_IOTKit_BSP/1.5.0/Boards/ARM/V2M-MPS2/Common/GLCD_V2M-MPS2.c:296:5
	movs	r0, #64
	movs	r1, #1
	blx	r5
.Ltmp11:
	.loc	2 297 5                         @ C:/Users/philo/AppData/Local/Arm/Packs/Keil/V2M-MPS2_IOTKit_BSP/1.5.0/Boards/ARM/V2M-MPS2/Common/GLCD_V2M-MPS2.c:297:5
	movs	r0, #65
	movs	r1, #0
	blx	r5
.Ltmp12:
	.loc	2 298 5                         @ C:/Users/philo/AppData/Local/Arm/Packs/Keil/V2M-MPS2_IOTKit_BSP/1.5.0/Boards/ARM/V2M-MPS2/Common/GLCD_V2M-MPS2.c:298:5
	movs	r0, #66
	movs	r1, #0
	blx	r5
.Ltmp13:
	.loc	2 299 5                         @ C:/Users/philo/AppData/Local/Arm/Packs/Keil/V2M-MPS2_IOTKit_BSP/1.5.0/Boards/ARM/V2M-MPS2/Common/GLCD_V2M-MPS2.c:299:5
	movs	r0, #67
	movs	r1, #16
	blx	r5
.Ltmp14:
	.loc	2 300 5                         @ C:/Users/philo/AppData/Local/Arm/Packs/Keil/V2M-MPS2_IOTKit_BSP/1.5.0/Boards/ARM/V2M-MPS2/Common/GLCD_V2M-MPS2.c:300:5
	movs	r0, #68
	movs	r1, #14
	blx	r5
.Ltmp15:
	.loc	2 301 5                         @ C:/Users/philo/AppData/Local/Arm/Packs/Keil/V2M-MPS2_IOTKit_BSP/1.5.0/Boards/ARM/V2M-MPS2/Common/GLCD_V2M-MPS2.c:301:5
	movs	r0, #69
	movs	r1, #36
	blx	r5
.Ltmp16:
	.loc	2 302 5                         @ C:/Users/philo/AppData/Local/Arm/Packs/Keil/V2M-MPS2_IOTKit_BSP/1.5.0/Boards/ARM/V2M-MPS2/Common/GLCD_V2M-MPS2.c:302:5
	movs	r0, #70
	movs	r1, #4
	blx	r5
.Ltmp17:
	.loc	2 303 5                         @ C:/Users/philo/AppData/Local/Arm/Packs/Keil/V2M-MPS2_IOTKit_BSP/1.5.0/Boards/ARM/V2M-MPS2/Common/GLCD_V2M-MPS2.c:303:5
	movs	r0, #71
	movs	r1, #80
	blx	r5
.Ltmp18:
	.loc	2 304 5                         @ C:/Users/philo/AppData/Local/Arm/Packs/Keil/V2M-MPS2_IOTKit_BSP/1.5.0/Boards/ARM/V2M-MPS2/Common/GLCD_V2M-MPS2.c:304:5
	movs	r0, #72
	movs	r1, #2
	blx	r5
.Ltmp19:
	.loc	2 305 5                         @ C:/Users/philo/AppData/Local/Arm/Packs/Keil/V2M-MPS2_IOTKit_BSP/1.5.0/Boards/ARM/V2M-MPS2/Common/GLCD_V2M-MPS2.c:305:5
	movs	r0, #73
	movs	r1, #19
	blx	r5
.Ltmp20:
	.loc	2 306 5                         @ C:/Users/philo/AppData/Local/Arm/Packs/Keil/V2M-MPS2_IOTKit_BSP/1.5.0/Boards/ARM/V2M-MPS2/Common/GLCD_V2M-MPS2.c:306:5
	movs	r0, #74
	movs	r1, #25
	blx	r5
.Ltmp21:
	.loc	2 307 5                         @ C:/Users/philo/AppData/Local/Arm/Packs/Keil/V2M-MPS2_IOTKit_BSP/1.5.0/Boards/ARM/V2M-MPS2/Common/GLCD_V2M-MPS2.c:307:5
	movs	r0, #75
	movs	r1, #25
	blx	r5
.Ltmp22:
	.loc	2 308 5                         @ C:/Users/philo/AppData/Local/Arm/Packs/Keil/V2M-MPS2_IOTKit_BSP/1.5.0/Boards/ARM/V2M-MPS2/Common/GLCD_V2M-MPS2.c:308:5
	movs	r0, #76
	movs	r1, #22
	blx	r5
.Ltmp23:
	.loc	2 310 5                         @ C:/Users/philo/AppData/Local/Arm/Packs/Keil/V2M-MPS2_IOTKit_BSP/1.5.0/Boards/ARM/V2M-MPS2/Common/GLCD_V2M-MPS2.c:310:5
	movs	r0, #80
	movs	r1, #27
	blx	r5
.Ltmp24:
	.loc	2 311 5                         @ C:/Users/philo/AppData/Local/Arm/Packs/Keil/V2M-MPS2_IOTKit_BSP/1.5.0/Boards/ARM/V2M-MPS2/Common/GLCD_V2M-MPS2.c:311:5
	movs	r0, #81
	movs	r1, #49
	blx	r5
.Ltmp25:
	.loc	2 312 5                         @ C:/Users/philo/AppData/Local/Arm/Packs/Keil/V2M-MPS2_IOTKit_BSP/1.5.0/Boards/ARM/V2M-MPS2/Common/GLCD_V2M-MPS2.c:312:5
	movs	r0, #82
	movs	r1, #47
	blx	r5
.Ltmp26:
	.loc	2 313 5                         @ C:/Users/philo/AppData/Local/Arm/Packs/Keil/V2M-MPS2_IOTKit_BSP/1.5.0/Boards/ARM/V2M-MPS2/Common/GLCD_V2M-MPS2.c:313:5
	movs	r0, #83
	movs	r1, #63
	blx	r5
.Ltmp27:
	.loc	2 314 5                         @ C:/Users/philo/AppData/Local/Arm/Packs/Keil/V2M-MPS2_IOTKit_BSP/1.5.0/Boards/ARM/V2M-MPS2/Common/GLCD_V2M-MPS2.c:314:5
	movs	r0, #84
	movs	r1, #63
	blx	r5
.Ltmp28:
	.loc	2 315 5                         @ C:/Users/philo/AppData/Local/Arm/Packs/Keil/V2M-MPS2_IOTKit_BSP/1.5.0/Boards/ARM/V2M-MPS2/Common/GLCD_V2M-MPS2.c:315:5
	movs	r0, #85
	movs	r1, #62
	blx	r5
.Ltmp29:
	.loc	2 316 5                         @ C:/Users/philo/AppData/Local/Arm/Packs/Keil/V2M-MPS2_IOTKit_BSP/1.5.0/Boards/ARM/V2M-MPS2/Common/GLCD_V2M-MPS2.c:316:5
	movs	r0, #86
	movs	r1, #47
	blx	r5
.Ltmp30:
	.loc	2 317 5                         @ C:/Users/philo/AppData/Local/Arm/Packs/Keil/V2M-MPS2_IOTKit_BSP/1.5.0/Boards/ARM/V2M-MPS2/Common/GLCD_V2M-MPS2.c:317:5
	movs	r0, #87
	movs	r1, #123
	blx	r5
.Ltmp31:
	.loc	2 318 5                         @ C:/Users/philo/AppData/Local/Arm/Packs/Keil/V2M-MPS2_IOTKit_BSP/1.5.0/Boards/ARM/V2M-MPS2/Common/GLCD_V2M-MPS2.c:318:5
	movs	r0, #88
	movs	r1, #9
	blx	r5
.Ltmp32:
	.loc	2 319 5                         @ C:/Users/philo/AppData/Local/Arm/Packs/Keil/V2M-MPS2_IOTKit_BSP/1.5.0/Boards/ARM/V2M-MPS2/Common/GLCD_V2M-MPS2.c:319:5
	movs	r0, #89
	movs	r1, #6
	blx	r5
.Ltmp33:
	.loc	2 320 5                         @ C:/Users/philo/AppData/Local/Arm/Packs/Keil/V2M-MPS2_IOTKit_BSP/1.5.0/Boards/ARM/V2M-MPS2/Common/GLCD_V2M-MPS2.c:320:5
	movs	r0, #90
	movs	r1, #6
	blx	r5
.Ltmp34:
	.loc	2 321 5                         @ C:/Users/philo/AppData/Local/Arm/Packs/Keil/V2M-MPS2_IOTKit_BSP/1.5.0/Boards/ARM/V2M-MPS2/Common/GLCD_V2M-MPS2.c:321:5
	movs	r0, #91
	movs	r1, #12
	blx	r5
.Ltmp35:
	.loc	2 322 5                         @ C:/Users/philo/AppData/Local/Arm/Packs/Keil/V2M-MPS2_IOTKit_BSP/1.5.0/Boards/ARM/V2M-MPS2/Common/GLCD_V2M-MPS2.c:322:5
	movs	r0, #92
	movs	r1, #29
	blx	r5
.Ltmp36:
	.loc	2 323 5                         @ C:/Users/philo/AppData/Local/Arm/Packs/Keil/V2M-MPS2_IOTKit_BSP/1.5.0/Boards/ARM/V2M-MPS2/Common/GLCD_V2M-MPS2.c:323:5
	movs	r0, #93
	movs	r1, #204
	blx	r5
.Ltmp37:
	.loc	2 326 5                         @ C:/Users/philo/AppData/Local/Arm/Packs/Keil/V2M-MPS2_IOTKit_BSP/1.5.0/Boards/ARM/V2M-MPS2/Common/GLCD_V2M-MPS2.c:326:5
	movs	r0, #27
	movs	r1, #27
	blx	r5
.Ltmp38:
	.loc	2 327 5                         @ C:/Users/philo/AppData/Local/Arm/Packs/Keil/V2M-MPS2_IOTKit_BSP/1.5.0/Boards/ARM/V2M-MPS2/Common/GLCD_V2M-MPS2.c:327:5
	movs	r0, #26
	movs	r1, #1
	blx	r5
.Ltmp39:
	.loc	2 328 5                         @ C:/Users/philo/AppData/Local/Arm/Packs/Keil/V2M-MPS2_IOTKit_BSP/1.5.0/Boards/ARM/V2M-MPS2/Common/GLCD_V2M-MPS2.c:328:5
	movs	r0, #36
	movs	r1, #47
	blx	r5
.Ltmp40:
	.loc	2 329 5                         @ C:/Users/philo/AppData/Local/Arm/Packs/Keil/V2M-MPS2_IOTKit_BSP/1.5.0/Boards/ARM/V2M-MPS2/Common/GLCD_V2M-MPS2.c:329:5
	movs	r0, #37
	movs	r1, #87
	blx	r5
.Ltmp41:
	.loc	2 330 5                         @ C:/Users/philo/AppData/Local/Arm/Packs/Keil/V2M-MPS2_IOTKit_BSP/1.5.0/Boards/ARM/V2M-MPS2/Common/GLCD_V2M-MPS2.c:330:5
	movs	r0, #35
	movs	r1, #136
	blx	r5
.Ltmp42:
	.loc	2 333 5                         @ C:/Users/philo/AppData/Local/Arm/Packs/Keil/V2M-MPS2_IOTKit_BSP/1.5.0/Boards/ARM/V2M-MPS2/Common/GLCD_V2M-MPS2.c:333:5
	movs	r0, #24
	movs	r1, #54
	blx	r5
.Ltmp43:
	.loc	2 334 5                         @ C:/Users/philo/AppData/Local/Arm/Packs/Keil/V2M-MPS2_IOTKit_BSP/1.5.0/Boards/ARM/V2M-MPS2/Common/GLCD_V2M-MPS2.c:334:5
	movs	r0, #25
	movs	r1, #1
	blx	r5
.Ltmp44:
	.loc	2 335 5                         @ C:/Users/philo/AppData/Local/Arm/Packs/Keil/V2M-MPS2_IOTKit_BSP/1.5.0/Boards/ARM/V2M-MPS2/Common/GLCD_V2M-MPS2.c:335:5
	movs	r0, #1
	movs	r1, #0
	blx	r5
.Ltmp45:
	.loc	2 336 5                         @ C:/Users/philo/AppData/Local/Arm/Packs/Keil/V2M-MPS2_IOTKit_BSP/1.5.0/Boards/ARM/V2M-MPS2/Common/GLCD_V2M-MPS2.c:336:5
	movs	r0, #31
	movs	r1, #136
	blx	r5
.Ltmp46:
	.loc	2 337 5                         @ C:/Users/philo/AppData/Local/Arm/Packs/Keil/V2M-MPS2_IOTKit_BSP/1.5.0/Boards/ARM/V2M-MPS2/Common/GLCD_V2M-MPS2.c:337:5
	movs	r0, #50
	blx	r6
.Ltmp47:
	.loc	2 338 5                         @ C:/Users/philo/AppData/Local/Arm/Packs/Keil/V2M-MPS2_IOTKit_BSP/1.5.0/Boards/ARM/V2M-MPS2/Common/GLCD_V2M-MPS2.c:338:5
	movs	r0, #31
	movs	r1, #130
	blx	r5
.Ltmp48:
	.loc	2 339 5                         @ C:/Users/philo/AppData/Local/Arm/Packs/Keil/V2M-MPS2_IOTKit_BSP/1.5.0/Boards/ARM/V2M-MPS2/Common/GLCD_V2M-MPS2.c:339:5
	movs	r0, #10
	blx	r6
.Ltmp49:
	.loc	2 340 5                         @ C:/Users/philo/AppData/Local/Arm/Packs/Keil/V2M-MPS2_IOTKit_BSP/1.5.0/Boards/ARM/V2M-MPS2/Common/GLCD_V2M-MPS2.c:340:5
	movs	r0, #31
	movs	r1, #146
	blx	r5
.Ltmp50:
	.loc	2 341 5                         @ C:/Users/philo/AppData/Local/Arm/Packs/Keil/V2M-MPS2_IOTKit_BSP/1.5.0/Boards/ARM/V2M-MPS2/Common/GLCD_V2M-MPS2.c:341:5
	movs	r0, #10
	blx	r6
.Ltmp51:
	.loc	2 342 5                         @ C:/Users/philo/AppData/Local/Arm/Packs/Keil/V2M-MPS2_IOTKit_BSP/1.5.0/Boards/ARM/V2M-MPS2/Common/GLCD_V2M-MPS2.c:342:5
	movs	r0, #31
	movs	r1, #210
	blx	r5
.Ltmp52:
	.loc	2 343 5                         @ C:/Users/philo/AppData/Local/Arm/Packs/Keil/V2M-MPS2_IOTKit_BSP/1.5.0/Boards/ARM/V2M-MPS2/Common/GLCD_V2M-MPS2.c:343:5
	movs	r0, #10
	blx	r6
.Ltmp53:
	.loc	2 346 5                         @ C:/Users/philo/AppData/Local/Arm/Packs/Keil/V2M-MPS2_IOTKit_BSP/1.5.0/Boards/ARM/V2M-MPS2/Common/GLCD_V2M-MPS2.c:346:5
	movs	r0, #23
	movs	r1, #85
	blx	r5
.Ltmp54:
	.loc	2 347 5                         @ C:/Users/philo/AppData/Local/Arm/Packs/Keil/V2M-MPS2_IOTKit_BSP/1.5.0/Boards/ARM/V2M-MPS2/Common/GLCD_V2M-MPS2.c:347:5
	movs	r0, #0
	movs	r1, #0
	blx	r5
.Ltmp55:
	.loc	2 350 5                         @ C:/Users/philo/AppData/Local/Arm/Packs/Keil/V2M-MPS2_IOTKit_BSP/1.5.0/Boards/ARM/V2M-MPS2/Common/GLCD_V2M-MPS2.c:350:5
	movs	r0, #47
	movs	r1, #17
	blx	r5
.Ltmp56:
	.loc	2 351 5                         @ C:/Users/philo/AppData/Local/Arm/Packs/Keil/V2M-MPS2_IOTKit_BSP/1.5.0/Boards/ARM/V2M-MPS2/Common/GLCD_V2M-MPS2.c:351:5
	movs	r0, #49
	movs	r1, #0
	blx	r5
.Ltmp57:
	.loc	2 352 5                         @ C:/Users/philo/AppData/Local/Arm/Packs/Keil/V2M-MPS2_IOTKit_BSP/1.5.0/Boards/ARM/V2M-MPS2/Common/GLCD_V2M-MPS2.c:352:5
	movs	r0, #50
	movs	r1, #0
	blx	r5
.Ltmp58:
	.loc	2 355 5                         @ C:/Users/philo/AppData/Local/Arm/Packs/Keil/V2M-MPS2_IOTKit_BSP/1.5.0/Boards/ARM/V2M-MPS2/Common/GLCD_V2M-MPS2.c:355:5
	movs	r0, #40
	movs	r1, #56
	blx	r5
.Ltmp59:
	.loc	2 356 5                         @ C:/Users/philo/AppData/Local/Arm/Packs/Keil/V2M-MPS2_IOTKit_BSP/1.5.0/Boards/ARM/V2M-MPS2/Common/GLCD_V2M-MPS2.c:356:5
	movs	r0, #200
	blx	r6
.Ltmp60:
	.loc	2 357 5                         @ C:/Users/philo/AppData/Local/Arm/Packs/Keil/V2M-MPS2_IOTKit_BSP/1.5.0/Boards/ARM/V2M-MPS2/Common/GLCD_V2M-MPS2.c:357:5
	movs	r0, #40
	movs	r1, #60
	blx	r5
.Ltmp61:
	.loc	2 360 5                         @ C:/Users/philo/AppData/Local/Arm/Packs/Keil/V2M-MPS2_IOTKit_BSP/1.5.0/Boards/ARM/V2M-MPS2/Common/GLCD_V2M-MPS2.c:360:5
	movs	r0, #22
	movs	r1, #168
	blx	r5
.Ltmp62:
	.loc	2 367 5                         @ C:/Users/philo/AppData/Local/Arm/Packs/Keil/V2M-MPS2_IOTKit_BSP/1.5.0/Boards/ARM/V2M-MPS2/Common/GLCD_V2M-MPS2.c:367:5
	movs	r0, #14
	movs	r1, #0
	blx	r5
.Ltmp63:
	.loc	2 368 5                         @ C:/Users/philo/AppData/Local/Arm/Packs/Keil/V2M-MPS2_IOTKit_BSP/1.5.0/Boards/ARM/V2M-MPS2/Common/GLCD_V2M-MPS2.c:368:5
	movs	r0, #15
	movs	r1, #0
	blx	r5
.Ltmp64:
	.loc	2 369 5                         @ C:/Users/philo/AppData/Local/Arm/Packs/Keil/V2M-MPS2_IOTKit_BSP/1.5.0/Boards/ARM/V2M-MPS2/Common/GLCD_V2M-MPS2.c:369:5
	movs	r0, #16
	movs	r1, #1
	blx	r5
.Ltmp65:
	.loc	2 370 5                         @ C:/Users/philo/AppData/Local/Arm/Packs/Keil/V2M-MPS2_IOTKit_BSP/1.5.0/Boards/ARM/V2M-MPS2/Common/GLCD_V2M-MPS2.c:370:5
	movs	r0, #17
	movs	r1, #64
	blx	r5
.Ltmp66:
	.loc	2 371 5                         @ C:/Users/philo/AppData/Local/Arm/Packs/Keil/V2M-MPS2_IOTKit_BSP/1.5.0/Boards/ARM/V2M-MPS2/Common/GLCD_V2M-MPS2.c:371:5
	movs	r0, #18
	movs	r1, #0
	blx	r5
.Ltmp67:
	.loc	2 372 5                         @ C:/Users/philo/AppData/Local/Arm/Packs/Keil/V2M-MPS2_IOTKit_BSP/1.5.0/Boards/ARM/V2M-MPS2/Common/GLCD_V2M-MPS2.c:372:5
	movs	r0, #19
	movs	r1, #0
	blx	r5
.Ltmp68:
	.loc	2 375 26                        @ C:/Users/philo/AppData/Local/Arm/Packs/Keil/V2M-MPS2_IOTKit_BSP/1.5.0/Boards/ARM/V2M-MPS2/Common/GLCD_V2M-MPS2.c:375:26
	ldr	r0, [r4]
	orr	r0, r0, #64
	str	r0, [r4]
	.loc	2 377 3                         @ C:/Users/philo/AppData/Local/Arm/Packs/Keil/V2M-MPS2_IOTKit_BSP/1.5.0/Boards/ARM/V2M-MPS2/Common/GLCD_V2M-MPS2.c:377:3
	movs	r0, #0
	pop	{r4, r5, r6, pc}
.Ltmp69:
	.p2align	2
@ %bb.1:
	.loc	2 0 3 is_stmt 0                 @ C:/Users/philo/AppData/Local/Arm/Packs/Keil/V2M-MPS2_IOTKit_BSP/1.5.0/Boards/ARM/V2M-MPS2/Common/GLCD_V2M-MPS2.c:0:3
__arm_cp.0_0:
	.long	1075863552                      @ 0x40206000
.Lcpi_end0:
	.size	__arm_cp.0_0, .Lcpi_end0-__arm_cp.0_0
__arm_cp.0_1:
	.long	1076895820                      @ 0x4030204c
.Lcpi_end1:
	.size	__arm_cp.0_1, .Lcpi_end1-__arm_cp.0_1
__arm_cp.0_2:
	.long	delay_ms
.Lcpi_end2:
	.size	__arm_cp.0_2, .Lcpi_end2-__arm_cp.0_2
__arm_cp.0_3:
	.long	wr_reg
.Lcpi_end3:
	.size	__arm_cp.0_3, .Lcpi_end3-__arm_cp.0_3
.Lfunc_end0:
	.size	GLCD_Initialize, .Lfunc_end0-GLCD_Initialize
	.cfi_endproc
	.cantunwind
	.fnend
                                        @ -- End function
	.section	.text.delay_ms,"ax",%progbits
	.p2align	2                               @ -- Begin function delay_ms
	.type	delay_ms,%function
	.code	16                              @ @delay_ms
	.thumb_func
delay_ms:
.Lfunc_begin1:
	.loc	2 102 0 is_stmt 1               @ C:/Users/philo/AppData/Local/Arm/Packs/Keil/V2M-MPS2_IOTKit_BSP/1.5.0/Boards/ARM/V2M-MPS2/Common/GLCD_V2M-MPS2.c:102:0
	.fnstart
	.cfi_startproc
@ %bb.0:
	@DEBUG_VALUE: delay_ms:ms <- $r0
	@DEBUG_VALUE: delay_ms:ms <- $r0
	.loc	2 113 12 prologue_end           @ C:/Users/philo/AppData/Local/Arm/Packs/Keil/V2M-MPS2_IOTKit_BSP/1.5.0/Boards/ARM/V2M-MPS2/Common/GLCD_V2M-MPS2.c:113:12
	ldr	r1, __arm_cp.1_0
	mov.w	r2, #1000
	ldr	r1, [r1]
	.loc	2 113 27 is_stmt 0              @ C:/Users/philo/AppData/Local/Arm/Packs/Keil/V2M-MPS2_IOTKit_BSP/1.5.0/Boards/ARM/V2M-MPS2/Common/GLCD_V2M-MPS2.c:113:27
	udiv	r1, r1, r2
	.loc	2 113 8                         @ C:/Users/philo/AppData/Local/Arm/Packs/Keil/V2M-MPS2_IOTKit_BSP/1.5.0/Boards/ARM/V2M-MPS2/Common/GLCD_V2M-MPS2.c:113:8
	muls	r0, r1, r0
.Ltmp70:
	@DEBUG_VALUE: delay_ms:ms <- [DW_OP_LLVM_entry_value 1] $r0
	@DEBUG_VALUE: delay_ms:ms <- $r0
.LBB1_1:                                @ =>This Inner Loop Header: Depth=1
	@DEBUG_VALUE: delay_ms:ms <- $r0
	@DEBUG_VALUE: delay_ms:ms <- [DW_OP_constu 1, DW_OP_minus, DW_OP_stack_value] $r0
	.loc	2 114 5 is_stmt 1               @ C:/Users/philo/AppData/Local/Arm/Packs/Keil/V2M-MPS2_IOTKit_BSP/1.5.0/Boards/ARM/V2M-MPS2/Common/GLCD_V2M-MPS2.c:114:5
	cbz	r0, .LBB1_3
.Ltmp71:
@ %bb.2:                                @   in Loop: Header=BB1_1 Depth=1
	@DEBUG_VALUE: delay_ms:ms <- [DW_OP_constu 1, DW_OP_minus, DW_OP_stack_value] $r0
	.loc	2 114 20 is_stmt 0              @ C:/Users/philo/AppData/Local/Arm/Packs/Keil/V2M-MPS2_IOTKit_BSP/1.5.0/Boards/ARM/V2M-MPS2/Common/GLCD_V2M-MPS2.c:114:20
	nop
.Ltmp72:
	.loc	2 114 14                        @ C:/Users/philo/AppData/Local/Arm/Packs/Keil/V2M-MPS2_IOTKit_BSP/1.5.0/Boards/ARM/V2M-MPS2/Common/GLCD_V2M-MPS2.c:114:14
	subs	r0, #1
.Ltmp73:
	@DEBUG_VALUE: delay_ms:ms <- $r0
	.loc	2 0 14                          @ C:/Users/philo/AppData/Local/Arm/Packs/Keil/V2M-MPS2_IOTKit_BSP/1.5.0/Boards/ARM/V2M-MPS2/Common/GLCD_V2M-MPS2.c:0:14
	b	.LBB1_1
.Ltmp74:
.LBB1_3:
	@DEBUG_VALUE: delay_ms:ms <- [DW_OP_constu 1, DW_OP_minus, DW_OP_stack_value] $r0
	.loc	2 116 1 is_stmt 1               @ C:/Users/philo/AppData/Local/Arm/Packs/Keil/V2M-MPS2_IOTKit_BSP/1.5.0/Boards/ARM/V2M-MPS2/Common/GLCD_V2M-MPS2.c:116:1
	bx	lr
.Ltmp75:
	.p2align	2
@ %bb.4:
	.loc	2 0 1 is_stmt 0                 @ C:/Users/philo/AppData/Local/Arm/Packs/Keil/V2M-MPS2_IOTKit_BSP/1.5.0/Boards/ARM/V2M-MPS2/Common/GLCD_V2M-MPS2.c:0:1
__arm_cp.1_0:
	.long	SystemCoreClock
.Lcpi_end4:
	.size	__arm_cp.1_0, .Lcpi_end4-__arm_cp.1_0
.Lfunc_end1:
	.size	delay_ms, .Lfunc_end1-delay_ms
	.cfi_endproc
	.cantunwind
	.fnend
                                        @ -- End function
	.section	.text.wr_reg,"ax",%progbits
	.p2align	1                               @ -- Begin function wr_reg
	.type	wr_reg,%function
	.code	16                              @ @wr_reg
	.thumb_func
wr_reg:
.Lfunc_begin2:
	.loc	2 199 0 is_stmt 1               @ C:/Users/philo/AppData/Local/Arm/Packs/Keil/V2M-MPS2_IOTKit_BSP/1.5.0/Boards/ARM/V2M-MPS2/Common/GLCD_V2M-MPS2.c:199:0
	.fnstart
	.cfi_startproc
@ %bb.0:
	@DEBUG_VALUE: wr_reg:reg <- $r0
	@DEBUG_VALUE: wr_reg:val <- $r1
	.save	{r4, lr}
	push	{r4, lr}
	.cfi_def_cfa_offset 8
	.cfi_offset lr, -4
	.cfi_offset r4, -8
	mov	r4, r1
.Ltmp76:
	@DEBUG_VALUE: wr_reg:val <- $r4
	@DEBUG_VALUE: wr_reg:val <- $r4
	@DEBUG_VALUE: wr_reg:reg <- $r0
	@DEBUG_VALUE: wr_reg:reg <- $r0
	.loc	2 200 3 prologue_end            @ C:/Users/philo/AppData/Local/Arm/Packs/Keil/V2M-MPS2_IOTKit_BSP/1.5.0/Boards/ARM/V2M-MPS2/Common/GLCD_V2M-MPS2.c:200:3
	bl	wr_cmd
.Ltmp77:
	@DEBUG_VALUE: wr_reg:reg <- [DW_OP_LLVM_entry_value 1] $r0
	.loc	2 201 3                         @ C:/Users/philo/AppData/Local/Arm/Packs/Keil/V2M-MPS2_IOTKit_BSP/1.5.0/Boards/ARM/V2M-MPS2/Common/GLCD_V2M-MPS2.c:201:3
	mov	r0, r4
.Ltmp78:
	@DEBUG_VALUE: wr_reg:val <- $r0
	pop.w	{r4, lr}
.Ltmp79:
	b	wr_dat
.Ltmp80:
.Lfunc_end2:
	.size	wr_reg, .Lfunc_end2-wr_reg
	.cfi_endproc
	.cantunwind
	.fnend
                                        @ -- End function
	.section	.text.GLCD_Uninitialize,"ax",%progbits
	.hidden	GLCD_Uninitialize               @ -- Begin function GLCD_Uninitialize
	.globl	GLCD_Uninitialize
	.p2align	1
	.type	GLCD_Uninitialize,%function
	.code	16                              @ @GLCD_Uninitialize
	.thumb_func
GLCD_Uninitialize:
.Lfunc_begin3:
	.loc	2 387 0                         @ C:/Users/philo/AppData/Local/Arm/Packs/Keil/V2M-MPS2_IOTKit_BSP/1.5.0/Boards/ARM/V2M-MPS2/Common/GLCD_V2M-MPS2.c:387:0
	.fnstart
	.cfi_startproc
@ %bb.0:
	.loc	2 389 3 prologue_end            @ C:/Users/philo/AppData/Local/Arm/Packs/Keil/V2M-MPS2_IOTKit_BSP/1.5.0/Boards/ARM/V2M-MPS2/Common/GLCD_V2M-MPS2.c:389:3
	movs	r0, #0
	bx	lr
.Ltmp81:
.Lfunc_end3:
	.size	GLCD_Uninitialize, .Lfunc_end3-GLCD_Uninitialize
	.cfi_endproc
	.cantunwind
	.fnend
                                        @ -- End function
	.section	.text.GLCD_SetForegroundColor,"ax",%progbits
	.hidden	GLCD_SetForegroundColor         @ -- Begin function GLCD_SetForegroundColor
	.globl	GLCD_SetForegroundColor
	.p2align	2
	.type	GLCD_SetForegroundColor,%function
	.code	16                              @ @GLCD_SetForegroundColor
	.thumb_func
GLCD_SetForegroundColor:
.Lfunc_begin4:
	.loc	2 400 0                         @ C:/Users/philo/AppData/Local/Arm/Packs/Keil/V2M-MPS2_IOTKit_BSP/1.5.0/Boards/ARM/V2M-MPS2/Common/GLCD_V2M-MPS2.c:400:0
	.fnstart
	.cfi_startproc
@ %bb.0:
	@DEBUG_VALUE: GLCD_SetForegroundColor:color <- $r0
	@DEBUG_VALUE: GLCD_SetForegroundColor:color <- $r0
	.loc	2 401 20 prologue_end           @ C:/Users/philo/AppData/Local/Arm/Packs/Keil/V2M-MPS2_IOTKit_BSP/1.5.0/Boards/ARM/V2M-MPS2/Common/GLCD_V2M-MPS2.c:401:20
	ldr	r1, __arm_cp.4_0
	strh	r0, [r1]
	.loc	2 402 3                         @ C:/Users/philo/AppData/Local/Arm/Packs/Keil/V2M-MPS2_IOTKit_BSP/1.5.0/Boards/ARM/V2M-MPS2/Common/GLCD_V2M-MPS2.c:402:3
	movs	r0, #0
.Ltmp82:
	@DEBUG_VALUE: GLCD_SetForegroundColor:color <- [DW_OP_LLVM_entry_value 1] $r0
	bx	lr
.Ltmp83:
	.p2align	2
@ %bb.1:
	.loc	2 0 3 is_stmt 0                 @ C:/Users/philo/AppData/Local/Arm/Packs/Keil/V2M-MPS2_IOTKit_BSP/1.5.0/Boards/ARM/V2M-MPS2/Common/GLCD_V2M-MPS2.c:0:3
__arm_cp.4_0:
	.long	.L_MergedGlobals
.Lcpi_end5:
	.size	__arm_cp.4_0, .Lcpi_end5-__arm_cp.4_0
.Lfunc_end4:
	.size	GLCD_SetForegroundColor, .Lfunc_end4-GLCD_SetForegroundColor
	.cfi_endproc
	.cantunwind
	.fnend
                                        @ -- End function
	.section	.text.GLCD_SetBackgroundColor,"ax",%progbits
	.hidden	GLCD_SetBackgroundColor         @ -- Begin function GLCD_SetBackgroundColor
	.globl	GLCD_SetBackgroundColor
	.p2align	2
	.type	GLCD_SetBackgroundColor,%function
	.code	16                              @ @GLCD_SetBackgroundColor
	.thumb_func
GLCD_SetBackgroundColor:
.Lfunc_begin5:
	.loc	2 413 0 is_stmt 1               @ C:/Users/philo/AppData/Local/Arm/Packs/Keil/V2M-MPS2_IOTKit_BSP/1.5.0/Boards/ARM/V2M-MPS2/Common/GLCD_V2M-MPS2.c:413:0
	.fnstart
	.cfi_startproc
@ %bb.0:
	@DEBUG_VALUE: GLCD_SetBackgroundColor:color <- $r0
	@DEBUG_VALUE: GLCD_SetBackgroundColor:color <- $r0
	.loc	2 414 20 prologue_end           @ C:/Users/philo/AppData/Local/Arm/Packs/Keil/V2M-MPS2_IOTKit_BSP/1.5.0/Boards/ARM/V2M-MPS2/Common/GLCD_V2M-MPS2.c:414:20
	ldr	r1, __arm_cp.5_0
	strh	r0, [r1]
	.loc	2 415 3                         @ C:/Users/philo/AppData/Local/Arm/Packs/Keil/V2M-MPS2_IOTKit_BSP/1.5.0/Boards/ARM/V2M-MPS2/Common/GLCD_V2M-MPS2.c:415:3
	movs	r0, #0
.Ltmp84:
	@DEBUG_VALUE: GLCD_SetBackgroundColor:color <- [DW_OP_LLVM_entry_value 1] $r0
	bx	lr
.Ltmp85:
	.p2align	2
@ %bb.1:
	.loc	2 0 3 is_stmt 0                 @ C:/Users/philo/AppData/Local/Arm/Packs/Keil/V2M-MPS2_IOTKit_BSP/1.5.0/Boards/ARM/V2M-MPS2/Common/GLCD_V2M-MPS2.c:0:3
__arm_cp.5_0:
	.long	background_color
.Lcpi_end6:
	.size	__arm_cp.5_0, .Lcpi_end6-__arm_cp.5_0
.Lfunc_end5:
	.size	GLCD_SetBackgroundColor, .Lfunc_end5-GLCD_SetBackgroundColor
	.cfi_endproc
	.cantunwind
	.fnend
                                        @ -- End function
	.section	.text.GLCD_ClearScreen,"ax",%progbits
	.hidden	GLCD_ClearScreen                @ -- Begin function GLCD_ClearScreen
	.globl	GLCD_ClearScreen
	.p2align	2
	.type	GLCD_ClearScreen,%function
	.code	16                              @ @GLCD_ClearScreen
	.thumb_func
GLCD_ClearScreen:
.Lfunc_begin6:
	.loc	2 425 0 is_stmt 1               @ C:/Users/philo/AppData/Local/Arm/Packs/Keil/V2M-MPS2_IOTKit_BSP/1.5.0/Boards/ARM/V2M-MPS2/Common/GLCD_V2M-MPS2.c:425:0
	.fnstart
	.cfi_startproc
@ %bb.0:
	.save	{r4, r5, r7, lr}
	push	{r4, r5, r7, lr}
	.cfi_def_cfa_offset 16
	.cfi_offset lr, -4
	.cfi_offset r7, -8
	.cfi_offset r5, -12
	.cfi_offset r4, -16
	bl	OUTLINED_FUNCTION_3
.Ltmp86:
	bl	OUTLINED_FUNCTION_1
.Ltmp87:
	.loc	2 431 3 prologue_end            @ C:/Users/philo/AppData/Local/Arm/Packs/Keil/V2M-MPS2_IOTKit_BSP/1.5.0/Boards/ARM/V2M-MPS2/Common/GLCD_V2M-MPS2.c:431:3
	bl	wr_dat_start
.Ltmp88:
	@DEBUG_VALUE: GLCD_ClearScreen:i <- 0
	.loc	2 0 3 is_stmt 0                 @ C:/Users/philo/AppData/Local/Arm/Packs/Keil/V2M-MPS2_IOTKit_BSP/1.5.0/Boards/ARM/V2M-MPS2/Common/GLCD_V2M-MPS2.c:0:3
	ldr	r0, __arm_cp.6_0
	mov.w	r5, #76800
	ldrh	r4, [r0]
.Ltmp89:
.LBB6_1:                                @ =>This Inner Loop Header: Depth=1
	@DEBUG_VALUE: GLCD_ClearScreen:i <- undef
	.loc	2 432 3 is_stmt 1               @ C:/Users/philo/AppData/Local/Arm/Packs/Keil/V2M-MPS2_IOTKit_BSP/1.5.0/Boards/ARM/V2M-MPS2/Common/GLCD_V2M-MPS2.c:432:3
	cbz	r5, .LBB6_3
.Ltmp90:
@ %bb.2:                                @   in Loop: Header=BB6_1 Depth=1
	.loc	2 433 5                         @ C:/Users/philo/AppData/Local/Arm/Packs/Keil/V2M-MPS2_IOTKit_BSP/1.5.0/Boards/ARM/V2M-MPS2/Common/GLCD_V2M-MPS2.c:433:5
	mov	r0, r4
	bl	wr_dat_only
.Ltmp91:
	@DEBUG_VALUE: GLCD_ClearScreen:i <- [DW_OP_plus_uconst 1, DW_OP_stack_value] undef
	.loc	2 432 3                         @ C:/Users/philo/AppData/Local/Arm/Packs/Keil/V2M-MPS2_IOTKit_BSP/1.5.0/Boards/ARM/V2M-MPS2/Common/GLCD_V2M-MPS2.c:432:3
	subs	r5, #1
	b	.LBB6_1
.Ltmp92:
.LBB6_3:
	.loc	2 0 3 is_stmt 0                 @ C:/Users/philo/AppData/Local/Arm/Packs/Keil/V2M-MPS2_IOTKit_BSP/1.5.0/Boards/ARM/V2M-MPS2/Common/GLCD_V2M-MPS2.c:0:3
	ldr	r0, __arm_cp.6_1
.Ltmp93:
	b	OUTLINED_FUNCTION_0
.Ltmp94:
	.p2align	2
@ %bb.4:
__arm_cp.6_0:
	.long	background_color
.Lcpi_end7:
	.size	__arm_cp.6_0, .Lcpi_end7-__arm_cp.6_0
__arm_cp.6_1:
	.long	1076895820                      @ 0x4030204c
.Lcpi_end8:
	.size	__arm_cp.6_1, .Lcpi_end8-__arm_cp.6_1
.Lfunc_end6:
	.size	GLCD_ClearScreen, .Lfunc_end6-GLCD_ClearScreen
	.cfi_endproc
	.cantunwind
	.fnend
                                        @ -- End function
	.section	.text.GLCD_SetWindow,"ax",%progbits
	.p2align	2                               @ -- Begin function GLCD_SetWindow
	.type	GLCD_SetWindow,%function
	.code	16                              @ @GLCD_SetWindow
	.thumb_func
GLCD_SetWindow:
.Lfunc_begin7:
	.loc	2 224 0 is_stmt 1               @ C:/Users/philo/AppData/Local/Arm/Packs/Keil/V2M-MPS2_IOTKit_BSP/1.5.0/Boards/ARM/V2M-MPS2/Common/GLCD_V2M-MPS2.c:224:0
	.fnstart
	.cfi_startproc
@ %bb.0:
	@DEBUG_VALUE: GLCD_SetWindow:x <- $r0
	@DEBUG_VALUE: GLCD_SetWindow:y <- $r1
	@DEBUG_VALUE: GLCD_SetWindow:w <- $r2
	@DEBUG_VALUE: GLCD_SetWindow:h <- $r3
	.save	{r4, r5, r6, r7, r8, lr}
	push.w	{r4, r5, r6, r7, r8, lr}
	.cfi_def_cfa_offset 24
	.cfi_offset lr, -4
	.cfi_offset r8, -8
	.cfi_offset r7, -12
	.cfi_offset r6, -16
	.cfi_offset r5, -20
	.cfi_offset r4, -24
	mov	r4, r1
.Ltmp95:
	@DEBUG_VALUE: GLCD_SetWindow:y <- $r4
	.loc	2 231 5 prologue_end            @ C:/Users/philo/AppData/Local/Arm/Packs/Keil/V2M-MPS2_IOTKit_BSP/1.5.0/Boards/ARM/V2M-MPS2/Common/GLCD_V2M-MPS2.c:231:5
	ubfx	r1, r0, #8, #16
	ldr	r5, __arm_cp.7_0
	mov	r7, r0
.Ltmp96:
	@DEBUG_VALUE: GLCD_SetWindow:x <- $r7
	@DEBUG_VALUE: GLCD_SetWindow:h <- $r8
	@DEBUG_VALUE: GLCD_SetWindow:w <- $r6
	@DEBUG_VALUE: GLCD_SetWindow:y <- $r4
	@DEBUG_VALUE: GLCD_SetWindow:x <- $r7
	movs	r0, #2
	mov	r8, r3
.Ltmp97:
	.loc	2 0 5 is_stmt 0                 @ C:/Users/philo/AppData/Local/Arm/Packs/Keil/V2M-MPS2_IOTKit_BSP/1.5.0/Boards/ARM/V2M-MPS2/Common/GLCD_V2M-MPS2.c:0:5
	mov	r6, r2
.Ltmp98:
	.loc	2 231 5                         @ C:/Users/philo/AppData/Local/Arm/Packs/Keil/V2M-MPS2_IOTKit_BSP/1.5.0/Boards/ARM/V2M-MPS2/Common/GLCD_V2M-MPS2.c:231:5
	blx	r5
.Ltmp99:
	.loc	2 232 5 is_stmt 1               @ C:/Users/philo/AppData/Local/Arm/Packs/Keil/V2M-MPS2_IOTKit_BSP/1.5.0/Boards/ARM/V2M-MPS2/Common/GLCD_V2M-MPS2.c:232:5
	uxtb	r1, r7
	movs	r0, #3
	blx	r5
.Ltmp100:
	.loc	2 228 11                        @ C:/Users/philo/AppData/Local/Arm/Packs/Keil/V2M-MPS2_IOTKit_BSP/1.5.0/Boards/ARM/V2M-MPS2/Common/GLCD_V2M-MPS2.c:228:11
	adds	r0, r7, r6
	.loc	2 228 13 is_stmt 0              @ C:/Users/philo/AppData/Local/Arm/Packs/Keil/V2M-MPS2_IOTKit_BSP/1.5.0/Boards/ARM/V2M-MPS2/Common/GLCD_V2M-MPS2.c:228:13
	subs	r6, r0, #1
.Ltmp101:
	@DEBUG_VALUE: GLCD_SetWindow:xe <- $r6
	.loc	2 233 5 is_stmt 1               @ C:/Users/philo/AppData/Local/Arm/Packs/Keil/V2M-MPS2_IOTKit_BSP/1.5.0/Boards/ARM/V2M-MPS2/Common/GLCD_V2M-MPS2.c:233:5
	movs	r0, #4
	ubfx	r1, r6, #8, #16
	blx	r5
.Ltmp102:
	.loc	2 234 5                         @ C:/Users/philo/AppData/Local/Arm/Packs/Keil/V2M-MPS2_IOTKit_BSP/1.5.0/Boards/ARM/V2M-MPS2/Common/GLCD_V2M-MPS2.c:234:5
	uxtb	r1, r6
	movs	r0, #5
	blx	r5
.Ltmp103:
	.loc	2 236 5                         @ C:/Users/philo/AppData/Local/Arm/Packs/Keil/V2M-MPS2_IOTKit_BSP/1.5.0/Boards/ARM/V2M-MPS2/Common/GLCD_V2M-MPS2.c:236:5
	ubfx	r1, r4, #8, #16
	movs	r0, #6
	blx	r5
.Ltmp104:
	.loc	2 237 5                         @ C:/Users/philo/AppData/Local/Arm/Packs/Keil/V2M-MPS2_IOTKit_BSP/1.5.0/Boards/ARM/V2M-MPS2/Common/GLCD_V2M-MPS2.c:237:5
	uxtb	r1, r4
	movs	r0, #7
	blx	r5
.Ltmp105:
	.loc	2 229 11                        @ C:/Users/philo/AppData/Local/Arm/Packs/Keil/V2M-MPS2_IOTKit_BSP/1.5.0/Boards/ARM/V2M-MPS2/Common/GLCD_V2M-MPS2.c:229:11
	add.w	r0, r4, r8
	.loc	2 229 13 is_stmt 0              @ C:/Users/philo/AppData/Local/Arm/Packs/Keil/V2M-MPS2_IOTKit_BSP/1.5.0/Boards/ARM/V2M-MPS2/Common/GLCD_V2M-MPS2.c:229:13
	subs	r4, r0, #1
.Ltmp106:
	@DEBUG_VALUE: GLCD_SetWindow:ye <- $r4
	.loc	2 238 5 is_stmt 1               @ C:/Users/philo/AppData/Local/Arm/Packs/Keil/V2M-MPS2_IOTKit_BSP/1.5.0/Boards/ARM/V2M-MPS2/Common/GLCD_V2M-MPS2.c:238:5
	movs	r0, #8
	ubfx	r1, r4, #8, #16
	blx	r5
.Ltmp107:
	.loc	2 239 5                         @ C:/Users/philo/AppData/Local/Arm/Packs/Keil/V2M-MPS2_IOTKit_BSP/1.5.0/Boards/ARM/V2M-MPS2/Common/GLCD_V2M-MPS2.c:239:5
	uxtb	r1, r4
	movs	r0, #9
	mov	r2, r5
	pop.w	{r4, r5, r6, r7, r8, lr}
.Ltmp108:
	bx	r2
.Ltmp109:
	.p2align	2
@ %bb.1:
	.loc	2 0 5 is_stmt 0                 @ C:/Users/philo/AppData/Local/Arm/Packs/Keil/V2M-MPS2_IOTKit_BSP/1.5.0/Boards/ARM/V2M-MPS2/Common/GLCD_V2M-MPS2.c:0:5
__arm_cp.7_0:
	.long	wr_reg
.Lcpi_end9:
	.size	__arm_cp.7_0, .Lcpi_end9-__arm_cp.7_0
.Lfunc_end7:
	.size	GLCD_SetWindow, .Lfunc_end7-GLCD_SetWindow
	.cfi_endproc
	.cantunwind
	.fnend
                                        @ -- End function
	.section	.text.wr_cmd,"ax",%progbits
	.p2align	2                               @ -- Begin function wr_cmd
	.type	wr_cmd,%function
	.code	16                              @ @wr_cmd
	.thumb_func
wr_cmd:
.Lfunc_begin8:
	.loc	2 135 0 is_stmt 1               @ C:/Users/philo/AppData/Local/Arm/Packs/Keil/V2M-MPS2_IOTKit_BSP/1.5.0/Boards/ARM/V2M-MPS2/Common/GLCD_V2M-MPS2.c:135:0
	.fnstart
	.cfi_startproc
@ %bb.0:
	@DEBUG_VALUE: wr_cmd:cmd <- $r0
	.save	{r4, r5, r6, lr}
	push	{r4, r5, r6, lr}
	.cfi_def_cfa_offset 16
	.cfi_offset lr, -4
	.cfi_offset r6, -8
	.cfi_offset r5, -12
	.cfi_offset r4, -16
	ldr	r5, __arm_cp.8_0
.Ltmp110:
	@DEBUG_VALUE: wr_cmd:cmd <- $r4
	mov	r4, r0
.Ltmp111:
	.loc	2 137 3 prologue_end            @ C:/Users/philo/AppData/Local/Arm/Packs/Keil/V2M-MPS2_IOTKit_BSP/1.5.0/Boards/ARM/V2M-MPS2/Common/GLCD_V2M-MPS2.c:137:3
	ldr	r6, __arm_cp.8_1
	.loc	2 136 3                         @ C:/Users/philo/AppData/Local/Arm/Packs/Keil/V2M-MPS2_IOTKit_BSP/1.5.0/Boards/ARM/V2M-MPS2/Common/GLCD_V2M-MPS2.c:136:3
	ldr	r0, [r5]
	bic	r0, r0, #1
	str	r0, [r5]
	.loc	2 137 3                         @ C:/Users/philo/AppData/Local/Arm/Packs/Keil/V2M-MPS2_IOTKit_BSP/1.5.0/Boards/ARM/V2M-MPS2/Common/GLCD_V2M-MPS2.c:137:3
	movs	r0, #112
	blx	r6
.Ltmp112:
	.loc	2 138 3                         @ C:/Users/philo/AppData/Local/Arm/Packs/Keil/V2M-MPS2_IOTKit_BSP/1.5.0/Boards/ARM/V2M-MPS2/Common/GLCD_V2M-MPS2.c:138:3
	movs	r0, #0
	blx	r6
.Ltmp113:
	.loc	2 139 3                         @ C:/Users/philo/AppData/Local/Arm/Packs/Keil/V2M-MPS2_IOTKit_BSP/1.5.0/Boards/ARM/V2M-MPS2/Common/GLCD_V2M-MPS2.c:139:3
	mov	r0, r4
.Ltmp114:
	@DEBUG_VALUE: wr_cmd:cmd <- $r0
	blx	r6
.Ltmp115:
	.loc	2 0 3 is_stmt 0                 @ C:/Users/philo/AppData/Local/Arm/Packs/Keil/V2M-MPS2_IOTKit_BSP/1.5.0/Boards/ARM/V2M-MPS2/Common/GLCD_V2M-MPS2.c:0:3
	b	OUTLINED_FUNCTION_4
.Ltmp116:
	.p2align	2
@ %bb.1:
__arm_cp.8_0:
	.long	1076895820                      @ 0x4030204c
.Lcpi_end10:
	.size	__arm_cp.8_0, .Lcpi_end10-__arm_cp.8_0
__arm_cp.8_1:
	.long	spi_tran
.Lcpi_end11:
	.size	__arm_cp.8_1, .Lcpi_end11-__arm_cp.8_1
.Lfunc_end8:
	.size	wr_cmd, .Lfunc_end8-wr_cmd
	.cfi_endproc
	.cantunwind
	.fnend
                                        @ -- End function
	.section	.text.wr_dat_start,"ax",%progbits
	.p2align	2                               @ -- Begin function wr_dat_start
	.type	wr_dat_start,%function
	.code	16                              @ @wr_dat_start
	.thumb_func
wr_dat_start:
.Lfunc_begin9:
	.loc	2 160 0 is_stmt 1               @ C:/Users/philo/AppData/Local/Arm/Packs/Keil/V2M-MPS2_IOTKit_BSP/1.5.0/Boards/ARM/V2M-MPS2/Common/GLCD_V2M-MPS2.c:160:0
	.fnstart
	.cfi_startproc
@ %bb.0:
	ldr	r0, __arm_cp.9_0
.Ltmp117:
	.loc	2 161 3 prologue_end            @ C:/Users/philo/AppData/Local/Arm/Packs/Keil/V2M-MPS2_IOTKit_BSP/1.5.0/Boards/ARM/V2M-MPS2/Common/GLCD_V2M-MPS2.c:161:3
	ldr	r1, [r0]
	bic	r1, r1, #1
	str	r1, [r0]
	.loc	2 162 3                         @ C:/Users/philo/AppData/Local/Arm/Packs/Keil/V2M-MPS2_IOTKit_BSP/1.5.0/Boards/ARM/V2M-MPS2/Common/GLCD_V2M-MPS2.c:162:3
	movs	r0, #114
.Ltmp118:
	b	spi_tran
.Ltmp119:
	.p2align	2
@ %bb.1:
	.loc	2 0 3 is_stmt 0                 @ C:/Users/philo/AppData/Local/Arm/Packs/Keil/V2M-MPS2_IOTKit_BSP/1.5.0/Boards/ARM/V2M-MPS2/Common/GLCD_V2M-MPS2.c:0:3
__arm_cp.9_0:
	.long	1076895820                      @ 0x4030204c
.Lcpi_end12:
	.size	__arm_cp.9_0, .Lcpi_end12-__arm_cp.9_0
.Lfunc_end9:
	.size	wr_dat_start, .Lfunc_end9-wr_dat_start
	.cfi_endproc
	.cantunwind
	.fnend
                                        @ -- End function
	.section	.text.wr_dat_only,"ax",%progbits
	.p2align	1                               @ -- Begin function wr_dat_only
	.type	wr_dat_only,%function
	.code	16                              @ @wr_dat_only
	.thumb_func
wr_dat_only:
.Lfunc_begin10:
	.loc	2 178 0 is_stmt 1               @ C:/Users/philo/AppData/Local/Arm/Packs/Keil/V2M-MPS2_IOTKit_BSP/1.5.0/Boards/ARM/V2M-MPS2/Common/GLCD_V2M-MPS2.c:178:0
	.fnstart
	.cfi_startproc
@ %bb.0:
	@DEBUG_VALUE: wr_dat_only:dat <- $r0
	.save	{r4, lr}
	push	{r4, lr}
	.cfi_def_cfa_offset 8
	.cfi_offset lr, -4
	.cfi_offset r4, -8
	mov	r4, r0
.Ltmp120:
	@DEBUG_VALUE: wr_dat_only:dat <- $r4
	.loc	2 179 17 prologue_end           @ C:/Users/philo/AppData/Local/Arm/Packs/Keil/V2M-MPS2_IOTKit_BSP/1.5.0/Boards/ARM/V2M-MPS2/Common/GLCD_V2M-MPS2.c:179:17
	lsrs	r0, r0, #8
	.loc	2 179 3 is_stmt 0               @ C:/Users/philo/AppData/Local/Arm/Packs/Keil/V2M-MPS2_IOTKit_BSP/1.5.0/Boards/ARM/V2M-MPS2/Common/GLCD_V2M-MPS2.c:179:3
	bl	spi_tran
.Ltmp121:
	.loc	2 180 3 is_stmt 1               @ C:/Users/philo/AppData/Local/Arm/Packs/Keil/V2M-MPS2_IOTKit_BSP/1.5.0/Boards/ARM/V2M-MPS2/Common/GLCD_V2M-MPS2.c:180:3
	uxtb	r0, r4
	pop.w	{r4, lr}
.Ltmp122:
	@DEBUG_VALUE: wr_dat_only:dat <- [DW_OP_LLVM_entry_value 1] $r0
	b	spi_tran
.Ltmp123:
.Lfunc_end10:
	.size	wr_dat_only, .Lfunc_end10-wr_dat_only
	.cfi_endproc
	.cantunwind
	.fnend
                                        @ -- End function
	.section	.text.GLCD_SetFont,"ax",%progbits
	.hidden	GLCD_SetFont                    @ -- Begin function GLCD_SetFont
	.globl	GLCD_SetFont
	.p2align	2
	.type	GLCD_SetFont,%function
	.code	16                              @ @GLCD_SetFont
	.thumb_func
GLCD_SetFont:
.Lfunc_begin11:
	.loc	2 447 0                         @ C:/Users/philo/AppData/Local/Arm/Packs/Keil/V2M-MPS2_IOTKit_BSP/1.5.0/Boards/ARM/V2M-MPS2/Common/GLCD_V2M-MPS2.c:447:0
	.fnstart
	.cfi_startproc
@ %bb.0:
	@DEBUG_VALUE: GLCD_SetFont:font <- $r0
	@DEBUG_VALUE: GLCD_SetFont:font <- $r0
	.loc	2 448 15 prologue_end           @ C:/Users/philo/AppData/Local/Arm/Packs/Keil/V2M-MPS2_IOTKit_BSP/1.5.0/Boards/ARM/V2M-MPS2/Common/GLCD_V2M-MPS2.c:448:15
	ldr	r1, __arm_cp.11_0
	str	r0, [r1, #4]
	.loc	2 449 3                         @ C:/Users/philo/AppData/Local/Arm/Packs/Keil/V2M-MPS2_IOTKit_BSP/1.5.0/Boards/ARM/V2M-MPS2/Common/GLCD_V2M-MPS2.c:449:3
	movs	r0, #0
.Ltmp124:
	@DEBUG_VALUE: GLCD_SetFont:font <- [DW_OP_LLVM_entry_value 1] $r0
	bx	lr
.Ltmp125:
	.p2align	2
@ %bb.1:
	.loc	2 0 3 is_stmt 0                 @ C:/Users/philo/AppData/Local/Arm/Packs/Keil/V2M-MPS2_IOTKit_BSP/1.5.0/Boards/ARM/V2M-MPS2/Common/GLCD_V2M-MPS2.c:0:3
__arm_cp.11_0:
	.long	.L_MergedGlobals
.Lcpi_end13:
	.size	__arm_cp.11_0, .Lcpi_end13-__arm_cp.11_0
.Lfunc_end11:
	.size	GLCD_SetFont, .Lfunc_end11-GLCD_SetFont
	.cfi_endproc
	.cantunwind
	.fnend
                                        @ -- End function
	.section	.text.GLCD_DrawPixel,"ax",%progbits
	.hidden	GLCD_DrawPixel                  @ -- Begin function GLCD_DrawPixel
	.globl	GLCD_DrawPixel
	.p2align	2
	.type	GLCD_DrawPixel,%function
	.code	16                              @ @GLCD_DrawPixel
	.thumb_func
GLCD_DrawPixel:
.Lfunc_begin12:
	.loc	2 461 0 is_stmt 1               @ C:/Users/philo/AppData/Local/Arm/Packs/Keil/V2M-MPS2_IOTKit_BSP/1.5.0/Boards/ARM/V2M-MPS2/Common/GLCD_V2M-MPS2.c:461:0
	.fnstart
	.cfi_startproc
@ %bb.0:
	@DEBUG_VALUE: GLCD_DrawPixel:x <- $r0
	@DEBUG_VALUE: GLCD_DrawPixel:y <- $r1
	.save	{r4, r5, r6, r7, lr}
	.pad	#4
	push	{r3, r4, r5, r6, r7, lr}
	.cfi_def_cfa_offset 24
	.cfi_offset lr, -4
	.cfi_offset r7, -8
	.cfi_offset r6, -12
	.cfi_offset r5, -16
	.cfi_offset r4, -20
.Ltmp126:
	.loc	2 467 5 prologue_end            @ C:/Users/philo/AppData/Local/Arm/Packs/Keil/V2M-MPS2_IOTKit_BSP/1.5.0/Boards/ARM/V2M-MPS2/Common/GLCD_V2M-MPS2.c:467:5
	ubfx	r6, r0, #8, #16
	ldr	r7, __arm_cp.12_0
	mov	r4, r1
.Ltmp127:
	@DEBUG_VALUE: GLCD_DrawPixel:y <- $r4
	.loc	2 0 5 is_stmt 0                 @ C:/Users/philo/AppData/Local/Arm/Packs/Keil/V2M-MPS2_IOTKit_BSP/1.5.0/Boards/ARM/V2M-MPS2/Common/GLCD_V2M-MPS2.c:0:5
	mov	r5, r0
.Ltmp128:
	@DEBUG_VALUE: GLCD_DrawPixel:x <- $r5
	@DEBUG_VALUE: GLCD_DrawPixel:y <- $r4
	@DEBUG_VALUE: GLCD_DrawPixel:x <- $r5
	.loc	2 467 5                         @ C:/Users/philo/AppData/Local/Arm/Packs/Keil/V2M-MPS2_IOTKit_BSP/1.5.0/Boards/ARM/V2M-MPS2/Common/GLCD_V2M-MPS2.c:467:5
	movs	r0, #2
	mov	r1, r6
	blx	r7
.Ltmp129:
	.loc	2 468 5 is_stmt 1               @ C:/Users/philo/AppData/Local/Arm/Packs/Keil/V2M-MPS2_IOTKit_BSP/1.5.0/Boards/ARM/V2M-MPS2/Common/GLCD_V2M-MPS2.c:468:5
	uxtb	r5, r5
.Ltmp130:
	movs	r0, #3
	mov	r1, r5
	blx	r7
.Ltmp131:
	.loc	2 469 5                         @ C:/Users/philo/AppData/Local/Arm/Packs/Keil/V2M-MPS2_IOTKit_BSP/1.5.0/Boards/ARM/V2M-MPS2/Common/GLCD_V2M-MPS2.c:469:5
	movs	r0, #4
	mov	r1, r6
	blx	r7
.Ltmp132:
	.loc	2 470 5                         @ C:/Users/philo/AppData/Local/Arm/Packs/Keil/V2M-MPS2_IOTKit_BSP/1.5.0/Boards/ARM/V2M-MPS2/Common/GLCD_V2M-MPS2.c:470:5
	movs	r0, #5
	mov	r1, r5
	blx	r7
.Ltmp133:
	.loc	2 472 5                         @ C:/Users/philo/AppData/Local/Arm/Packs/Keil/V2M-MPS2_IOTKit_BSP/1.5.0/Boards/ARM/V2M-MPS2/Common/GLCD_V2M-MPS2.c:472:5
	ubfx	r5, r4, #8, #16
	movs	r0, #6
	mov	r1, r5
	blx	r7
.Ltmp134:
	.loc	2 473 5                         @ C:/Users/philo/AppData/Local/Arm/Packs/Keil/V2M-MPS2_IOTKit_BSP/1.5.0/Boards/ARM/V2M-MPS2/Common/GLCD_V2M-MPS2.c:473:5
	uxtb	r4, r4
.Ltmp135:
	movs	r0, #7
	mov	r1, r4
	blx	r7
.Ltmp136:
	.loc	2 474 5                         @ C:/Users/philo/AppData/Local/Arm/Packs/Keil/V2M-MPS2_IOTKit_BSP/1.5.0/Boards/ARM/V2M-MPS2/Common/GLCD_V2M-MPS2.c:474:5
	movs	r0, #8
	mov	r1, r5
	blx	r7
.Ltmp137:
	.loc	2 475 5                         @ C:/Users/philo/AppData/Local/Arm/Packs/Keil/V2M-MPS2_IOTKit_BSP/1.5.0/Boards/ARM/V2M-MPS2/Common/GLCD_V2M-MPS2.c:475:5
	movs	r0, #9
	mov	r1, r4
	blx	r7
.Ltmp138:
	.loc	2 0 5 is_stmt 0                 @ C:/Users/philo/AppData/Local/Arm/Packs/Keil/V2M-MPS2_IOTKit_BSP/1.5.0/Boards/ARM/V2M-MPS2/Common/GLCD_V2M-MPS2.c:0:5
	bl	OUTLINED_FUNCTION_1
.Ltmp139:
	.loc	2 479 10 is_stmt 1              @ C:/Users/philo/AppData/Local/Arm/Packs/Keil/V2M-MPS2_IOTKit_BSP/1.5.0/Boards/ARM/V2M-MPS2/Common/GLCD_V2M-MPS2.c:479:10
	ldr	r0, __arm_cp.12_1
	ldrh	r0, [r0]
	.loc	2 479 3 is_stmt 0               @ C:/Users/philo/AppData/Local/Arm/Packs/Keil/V2M-MPS2_IOTKit_BSP/1.5.0/Boards/ARM/V2M-MPS2/Common/GLCD_V2M-MPS2.c:479:3
	bl	wr_dat
.Ltmp140:
	.loc	2 481 3 is_stmt 1               @ C:/Users/philo/AppData/Local/Arm/Packs/Keil/V2M-MPS2_IOTKit_BSP/1.5.0/Boards/ARM/V2M-MPS2/Common/GLCD_V2M-MPS2.c:481:3
	movs	r0, #0
	pop	{r3, r4, r5, r6, r7, pc}
.Ltmp141:
	.p2align	2
@ %bb.1:
	.loc	2 0 3 is_stmt 0                 @ C:/Users/philo/AppData/Local/Arm/Packs/Keil/V2M-MPS2_IOTKit_BSP/1.5.0/Boards/ARM/V2M-MPS2/Common/GLCD_V2M-MPS2.c:0:3
__arm_cp.12_0:
	.long	wr_reg
.Lcpi_end14:
	.size	__arm_cp.12_0, .Lcpi_end14-__arm_cp.12_0
__arm_cp.12_1:
	.long	.L_MergedGlobals
.Lcpi_end15:
	.size	__arm_cp.12_1, .Lcpi_end15-__arm_cp.12_1
.Lfunc_end12:
	.size	GLCD_DrawPixel, .Lfunc_end12-GLCD_DrawPixel
	.cfi_endproc
	.cantunwind
	.fnend
                                        @ -- End function
	.section	.text.wr_dat,"ax",%progbits
	.p2align	2                               @ -- Begin function wr_dat
	.type	wr_dat,%function
	.code	16                              @ @wr_dat
	.thumb_func
wr_dat:
.Lfunc_begin13:
	.loc	2 148 0 is_stmt 1               @ C:/Users/philo/AppData/Local/Arm/Packs/Keil/V2M-MPS2_IOTKit_BSP/1.5.0/Boards/ARM/V2M-MPS2/Common/GLCD_V2M-MPS2.c:148:0
	.fnstart
	.cfi_startproc
@ %bb.0:
	@DEBUG_VALUE: wr_dat:dat <- $r0
	.save	{r4, r5, r6, lr}
	push	{r4, r5, r6, lr}
	.cfi_def_cfa_offset 16
	.cfi_offset lr, -4
	.cfi_offset r6, -8
	.cfi_offset r5, -12
	.cfi_offset r4, -16
	ldr	r5, __arm_cp.13_0
.Ltmp142:
	@DEBUG_VALUE: wr_dat:dat <- $r4
	mov	r4, r0
.Ltmp143:
	.loc	2 150 3 prologue_end            @ C:/Users/philo/AppData/Local/Arm/Packs/Keil/V2M-MPS2_IOTKit_BSP/1.5.0/Boards/ARM/V2M-MPS2/Common/GLCD_V2M-MPS2.c:150:3
	ldr	r6, __arm_cp.13_1
	.loc	2 149 3                         @ C:/Users/philo/AppData/Local/Arm/Packs/Keil/V2M-MPS2_IOTKit_BSP/1.5.0/Boards/ARM/V2M-MPS2/Common/GLCD_V2M-MPS2.c:149:3
	ldr	r0, [r5]
	bic	r0, r0, #1
	str	r0, [r5]
	.loc	2 150 3                         @ C:/Users/philo/AppData/Local/Arm/Packs/Keil/V2M-MPS2_IOTKit_BSP/1.5.0/Boards/ARM/V2M-MPS2/Common/GLCD_V2M-MPS2.c:150:3
	movs	r0, #114
	blx	r6
.Ltmp144:
	.loc	2 151 17                        @ C:/Users/philo/AppData/Local/Arm/Packs/Keil/V2M-MPS2_IOTKit_BSP/1.5.0/Boards/ARM/V2M-MPS2/Common/GLCD_V2M-MPS2.c:151:17
	lsrs	r0, r4, #8
	.loc	2 151 3 is_stmt 0               @ C:/Users/philo/AppData/Local/Arm/Packs/Keil/V2M-MPS2_IOTKit_BSP/1.5.0/Boards/ARM/V2M-MPS2/Common/GLCD_V2M-MPS2.c:151:3
	blx	r6
.Ltmp145:
	.loc	2 152 3 is_stmt 1               @ C:/Users/philo/AppData/Local/Arm/Packs/Keil/V2M-MPS2_IOTKit_BSP/1.5.0/Boards/ARM/V2M-MPS2/Common/GLCD_V2M-MPS2.c:152:3
	uxtb	r0, r4
	blx	r6
.Ltmp146:
	.loc	2 0 3 is_stmt 0                 @ C:/Users/philo/AppData/Local/Arm/Packs/Keil/V2M-MPS2_IOTKit_BSP/1.5.0/Boards/ARM/V2M-MPS2/Common/GLCD_V2M-MPS2.c:0:3
	b	OUTLINED_FUNCTION_4
.Ltmp147:
	.p2align	2
@ %bb.1:
__arm_cp.13_0:
	.long	1076895820                      @ 0x4030204c
.Lcpi_end16:
	.size	__arm_cp.13_0, .Lcpi_end16-__arm_cp.13_0
__arm_cp.13_1:
	.long	spi_tran
.Lcpi_end17:
	.size	__arm_cp.13_1, .Lcpi_end17-__arm_cp.13_1
.Lfunc_end13:
	.size	wr_dat, .Lfunc_end13-wr_dat
	.cfi_endproc
	.cantunwind
	.fnend
                                        @ -- End function
	.section	.text.GLCD_DrawHLine,"ax",%progbits
	.hidden	GLCD_DrawHLine                  @ -- Begin function GLCD_DrawHLine
	.globl	GLCD_DrawHLine
	.p2align	2
	.type	GLCD_DrawHLine,%function
	.code	16                              @ @GLCD_DrawHLine
	.thumb_func
GLCD_DrawHLine:
.Lfunc_begin14:
	.loc	2 494 0 is_stmt 1               @ C:/Users/philo/AppData/Local/Arm/Packs/Keil/V2M-MPS2_IOTKit_BSP/1.5.0/Boards/ARM/V2M-MPS2/Common/GLCD_V2M-MPS2.c:494:0
	.fnstart
	.cfi_startproc
@ %bb.0:
	@DEBUG_VALUE: GLCD_DrawHLine:x <- $r0
	@DEBUG_VALUE: GLCD_DrawHLine:y <- $r1
	@DEBUG_VALUE: GLCD_DrawHLine:length <- $r2
	.save	{r4, r5, r7, lr}
	push	{r4, r5, r7, lr}
	.cfi_def_cfa_offset 16
	.cfi_offset lr, -4
	.cfi_offset r7, -8
	.cfi_offset r5, -12
	.cfi_offset r4, -16
.Ltmp148:
	.loc	2 499 3 prologue_end            @ C:/Users/philo/AppData/Local/Arm/Packs/Keil/V2M-MPS2_IOTKit_BSP/1.5.0/Boards/ARM/V2M-MPS2/Common/GLCD_V2M-MPS2.c:499:3
	movs	r3, #1
	mov	r4, r2
.Ltmp149:
	@DEBUG_VALUE: GLCD_DrawHLine:length <- $r4
	@DEBUG_VALUE: GLCD_DrawHLine:y <- $r1
	@DEBUG_VALUE: GLCD_DrawHLine:x <- $r0
	@DEBUG_VALUE: GLCD_DrawHLine:y <- $r1
	@DEBUG_VALUE: GLCD_DrawHLine:x <- $r0
	bl	GLCD_SetWindow
.Ltmp150:
	@DEBUG_VALUE: GLCD_DrawHLine:y <- [DW_OP_LLVM_entry_value 1] $r1
	@DEBUG_VALUE: GLCD_DrawHLine:x <- [DW_OP_LLVM_entry_value 1] $r0
	.loc	2 0 3 is_stmt 0                 @ C:/Users/philo/AppData/Local/Arm/Packs/Keil/V2M-MPS2_IOTKit_BSP/1.5.0/Boards/ARM/V2M-MPS2/Common/GLCD_V2M-MPS2.c:0:3
	bl	OUTLINED_FUNCTION_1
.Ltmp151:
	.loc	2 501 3 is_stmt 1               @ C:/Users/philo/AppData/Local/Arm/Packs/Keil/V2M-MPS2_IOTKit_BSP/1.5.0/Boards/ARM/V2M-MPS2/Common/GLCD_V2M-MPS2.c:501:3
	bl	wr_dat_start
.Ltmp152:
	.loc	2 0 3 is_stmt 0                 @ C:/Users/philo/AppData/Local/Arm/Packs/Keil/V2M-MPS2_IOTKit_BSP/1.5.0/Boards/ARM/V2M-MPS2/Common/GLCD_V2M-MPS2.c:0:3
	ldr	r0, __arm_cp.14_0
	ldrh	r5, [r0]
.Ltmp153:
.LBB14_1:                               @ =>This Inner Loop Header: Depth=1
	@DEBUG_VALUE: GLCD_DrawHLine:length <- $r4
	@DEBUG_VALUE: GLCD_DrawHLine:y <- [DW_OP_LLVM_entry_value 1] $r1
	@DEBUG_VALUE: GLCD_DrawHLine:x <- [DW_OP_LLVM_entry_value 1] $r0
	@DEBUG_VALUE: GLCD_DrawHLine:length <- [DW_OP_constu 1, DW_OP_minus, DW_OP_stack_value] $r4
	.loc	2 503 3 is_stmt 1               @ C:/Users/philo/AppData/Local/Arm/Packs/Keil/V2M-MPS2_IOTKit_BSP/1.5.0/Boards/ARM/V2M-MPS2/Common/GLCD_V2M-MPS2.c:503:3
	cbz	r4, .LBB14_3
.Ltmp154:
@ %bb.2:                                @   in Loop: Header=BB14_1 Depth=1
	@DEBUG_VALUE: GLCD_DrawHLine:length <- [DW_OP_constu 1, DW_OP_minus, DW_OP_stack_value] $r4
	@DEBUG_VALUE: GLCD_DrawHLine:y <- [DW_OP_LLVM_entry_value 1] $r1
	@DEBUG_VALUE: GLCD_DrawHLine:x <- [DW_OP_LLVM_entry_value 1] $r0
	.loc	2 504 5                         @ C:/Users/philo/AppData/Local/Arm/Packs/Keil/V2M-MPS2_IOTKit_BSP/1.5.0/Boards/ARM/V2M-MPS2/Common/GLCD_V2M-MPS2.c:504:5
	mov	r0, r5
	bl	wr_dat_only
.Ltmp155:
	.loc	2 503 16                        @ C:/Users/philo/AppData/Local/Arm/Packs/Keil/V2M-MPS2_IOTKit_BSP/1.5.0/Boards/ARM/V2M-MPS2/Common/GLCD_V2M-MPS2.c:503:16
	subs	r4, #1
.Ltmp156:
	@DEBUG_VALUE: GLCD_DrawHLine:length <- $r4
	.loc	2 0 16 is_stmt 0                @ C:/Users/philo/AppData/Local/Arm/Packs/Keil/V2M-MPS2_IOTKit_BSP/1.5.0/Boards/ARM/V2M-MPS2/Common/GLCD_V2M-MPS2.c:0:16
	b	.LBB14_1
.Ltmp157:
.LBB14_3:
	@DEBUG_VALUE: GLCD_DrawHLine:length <- [DW_OP_constu 1, DW_OP_minus, DW_OP_stack_value] $r4
	@DEBUG_VALUE: GLCD_DrawHLine:y <- [DW_OP_LLVM_entry_value 1] $r1
	@DEBUG_VALUE: GLCD_DrawHLine:x <- [DW_OP_LLVM_entry_value 1] $r0
	ldr	r0, __arm_cp.14_1
.Ltmp158:
	b	OUTLINED_FUNCTION_0
.Ltmp159:
	.p2align	2
@ %bb.4:
__arm_cp.14_0:
	.long	.L_MergedGlobals
.Lcpi_end18:
	.size	__arm_cp.14_0, .Lcpi_end18-__arm_cp.14_0
__arm_cp.14_1:
	.long	1076895820                      @ 0x4030204c
.Lcpi_end19:
	.size	__arm_cp.14_1, .Lcpi_end19-__arm_cp.14_1
.Lfunc_end14:
	.size	GLCD_DrawHLine, .Lfunc_end14-GLCD_DrawHLine
	.cfi_endproc
	.cantunwind
	.fnend
                                        @ -- End function
	.section	.text.GLCD_DrawVLine,"ax",%progbits
	.hidden	GLCD_DrawVLine                  @ -- Begin function GLCD_DrawVLine
	.globl	GLCD_DrawVLine
	.p2align	2
	.type	GLCD_DrawVLine,%function
	.code	16                              @ @GLCD_DrawVLine
	.thumb_func
GLCD_DrawVLine:
.Lfunc_begin15:
	.loc	2 520 0 is_stmt 1               @ C:/Users/philo/AppData/Local/Arm/Packs/Keil/V2M-MPS2_IOTKit_BSP/1.5.0/Boards/ARM/V2M-MPS2/Common/GLCD_V2M-MPS2.c:520:0
	.fnstart
	.cfi_startproc
@ %bb.0:
	@DEBUG_VALUE: GLCD_DrawVLine:x <- $r0
	@DEBUG_VALUE: GLCD_DrawVLine:y <- $r1
	@DEBUG_VALUE: GLCD_DrawVLine:length <- $r2
	.save	{r4, r5, r7, lr}
	push	{r4, r5, r7, lr}
	.cfi_def_cfa_offset 16
	.cfi_offset lr, -4
	.cfi_offset r7, -8
	.cfi_offset r5, -12
	.cfi_offset r4, -16
	mov	r4, r2
.Ltmp160:
	@DEBUG_VALUE: GLCD_DrawVLine:length <- $r4
	@DEBUG_VALUE: GLCD_DrawVLine:length <- $r4
	@DEBUG_VALUE: GLCD_DrawVLine:y <- $r1
	@DEBUG_VALUE: GLCD_DrawVLine:x <- $r0
	@DEBUG_VALUE: GLCD_DrawVLine:y <- $r1
	@DEBUG_VALUE: GLCD_DrawVLine:x <- $r0
	.loc	2 525 3 prologue_end            @ C:/Users/philo/AppData/Local/Arm/Packs/Keil/V2M-MPS2_IOTKit_BSP/1.5.0/Boards/ARM/V2M-MPS2/Common/GLCD_V2M-MPS2.c:525:3
	movs	r2, #1
	mov	r3, r4
	bl	GLCD_SetWindow
.Ltmp161:
	@DEBUG_VALUE: GLCD_DrawVLine:y <- [DW_OP_LLVM_entry_value 1] $r1
	@DEBUG_VALUE: GLCD_DrawVLine:x <- [DW_OP_LLVM_entry_value 1] $r0
	.loc	2 0 3 is_stmt 0                 @ C:/Users/philo/AppData/Local/Arm/Packs/Keil/V2M-MPS2_IOTKit_BSP/1.5.0/Boards/ARM/V2M-MPS2/Common/GLCD_V2M-MPS2.c:0:3
	bl	OUTLINED_FUNCTION_1
.Ltmp162:
	.loc	2 527 3 is_stmt 1               @ C:/Users/philo/AppData/Local/Arm/Packs/Keil/V2M-MPS2_IOTKit_BSP/1.5.0/Boards/ARM/V2M-MPS2/Common/GLCD_V2M-MPS2.c:527:3
	bl	wr_dat_start
.Ltmp163:
	.loc	2 0 3 is_stmt 0                 @ C:/Users/philo/AppData/Local/Arm/Packs/Keil/V2M-MPS2_IOTKit_BSP/1.5.0/Boards/ARM/V2M-MPS2/Common/GLCD_V2M-MPS2.c:0:3
	ldr	r0, __arm_cp.15_0
	ldrh	r5, [r0]
.Ltmp164:
.LBB15_1:                               @ =>This Inner Loop Header: Depth=1
	@DEBUG_VALUE: GLCD_DrawVLine:length <- $r4
	@DEBUG_VALUE: GLCD_DrawVLine:y <- [DW_OP_LLVM_entry_value 1] $r1
	@DEBUG_VALUE: GLCD_DrawVLine:x <- [DW_OP_LLVM_entry_value 1] $r0
	@DEBUG_VALUE: GLCD_DrawVLine:length <- [DW_OP_constu 1, DW_OP_minus, DW_OP_stack_value] $r4
	.loc	2 529 3 is_stmt 1               @ C:/Users/philo/AppData/Local/Arm/Packs/Keil/V2M-MPS2_IOTKit_BSP/1.5.0/Boards/ARM/V2M-MPS2/Common/GLCD_V2M-MPS2.c:529:3
	cbz	r4, .LBB15_3
.Ltmp165:
@ %bb.2:                                @   in Loop: Header=BB15_1 Depth=1
	@DEBUG_VALUE: GLCD_DrawVLine:length <- [DW_OP_constu 1, DW_OP_minus, DW_OP_stack_value] $r4
	@DEBUG_VALUE: GLCD_DrawVLine:y <- [DW_OP_LLVM_entry_value 1] $r1
	@DEBUG_VALUE: GLCD_DrawVLine:x <- [DW_OP_LLVM_entry_value 1] $r0
	.loc	2 530 5                         @ C:/Users/philo/AppData/Local/Arm/Packs/Keil/V2M-MPS2_IOTKit_BSP/1.5.0/Boards/ARM/V2M-MPS2/Common/GLCD_V2M-MPS2.c:530:5
	mov	r0, r5
	bl	wr_dat_only
.Ltmp166:
	.loc	2 529 16                        @ C:/Users/philo/AppData/Local/Arm/Packs/Keil/V2M-MPS2_IOTKit_BSP/1.5.0/Boards/ARM/V2M-MPS2/Common/GLCD_V2M-MPS2.c:529:16
	subs	r4, #1
.Ltmp167:
	@DEBUG_VALUE: GLCD_DrawVLine:length <- $r4
	.loc	2 0 16 is_stmt 0                @ C:/Users/philo/AppData/Local/Arm/Packs/Keil/V2M-MPS2_IOTKit_BSP/1.5.0/Boards/ARM/V2M-MPS2/Common/GLCD_V2M-MPS2.c:0:16
	b	.LBB15_1
.Ltmp168:
.LBB15_3:
	@DEBUG_VALUE: GLCD_DrawVLine:length <- [DW_OP_constu 1, DW_OP_minus, DW_OP_stack_value] $r4
	@DEBUG_VALUE: GLCD_DrawVLine:y <- [DW_OP_LLVM_entry_value 1] $r1
	@DEBUG_VALUE: GLCD_DrawVLine:x <- [DW_OP_LLVM_entry_value 1] $r0
	ldr	r0, __arm_cp.15_1
.Ltmp169:
	b	OUTLINED_FUNCTION_0
.Ltmp170:
	.p2align	2
@ %bb.4:
__arm_cp.15_0:
	.long	.L_MergedGlobals
.Lcpi_end20:
	.size	__arm_cp.15_0, .Lcpi_end20-__arm_cp.15_0
__arm_cp.15_1:
	.long	1076895820                      @ 0x4030204c
.Lcpi_end21:
	.size	__arm_cp.15_1, .Lcpi_end21-__arm_cp.15_1
.Lfunc_end15:
	.size	GLCD_DrawVLine, .Lfunc_end15-GLCD_DrawVLine
	.cfi_endproc
	.cantunwind
	.fnend
                                        @ -- End function
	.section	.text.GLCD_DrawRectangle,"ax",%progbits
	.hidden	GLCD_DrawRectangle              @ -- Begin function GLCD_DrawRectangle
	.globl	GLCD_DrawRectangle
	.p2align	1
	.type	GLCD_DrawRectangle,%function
	.code	16                              @ @GLCD_DrawRectangle
	.thumb_func
GLCD_DrawRectangle:
.Lfunc_begin16:
	.loc	2 547 0 is_stmt 1               @ C:/Users/philo/AppData/Local/Arm/Packs/Keil/V2M-MPS2_IOTKit_BSP/1.5.0/Boards/ARM/V2M-MPS2/Common/GLCD_V2M-MPS2.c:547:0
	.fnstart
	.cfi_startproc
@ %bb.0:
	@DEBUG_VALUE: GLCD_DrawRectangle:x <- $r0
	@DEBUG_VALUE: GLCD_DrawRectangle:y <- $r1
	@DEBUG_VALUE: GLCD_DrawRectangle:width <- $r2
	@DEBUG_VALUE: GLCD_DrawRectangle:height <- $r3
	.save	{r4, r5, r6, r7, lr}
	.pad	#4
	push	{r3, r4, r5, r6, r7, lr}
	.cfi_def_cfa_offset 24
	.cfi_offset lr, -4
	.cfi_offset r7, -8
	.cfi_offset r6, -12
	.cfi_offset r5, -16
	.cfi_offset r4, -20
	mov	r4, r3
.Ltmp171:
	@DEBUG_VALUE: GLCD_DrawRectangle:height <- $r4
	mov	r5, r2
	mov	r6, r1
	mov	r7, r0
	@DEBUG_VALUE: GLCD_DrawRectangle:height <- $r4
.Ltmp172:
	@DEBUG_VALUE: GLCD_DrawRectangle:width <- $r5
	@DEBUG_VALUE: GLCD_DrawRectangle:y <- $r6
	@DEBUG_VALUE: GLCD_DrawRectangle:x <- $r7
	.loc	2 549 3 prologue_end            @ C:/Users/philo/AppData/Local/Arm/Packs/Keil/V2M-MPS2_IOTKit_BSP/1.5.0/Boards/ARM/V2M-MPS2/Common/GLCD_V2M-MPS2.c:549:3
	bl	GLCD_DrawHLine
.Ltmp173:
	.loc	2 550 32                        @ C:/Users/philo/AppData/Local/Arm/Packs/Keil/V2M-MPS2_IOTKit_BSP/1.5.0/Boards/ARM/V2M-MPS2/Common/GLCD_V2M-MPS2.c:550:32
	adds	r1, r4, r6
	.loc	2 550 3 is_stmt 0               @ C:/Users/philo/AppData/Local/Arm/Packs/Keil/V2M-MPS2_IOTKit_BSP/1.5.0/Boards/ARM/V2M-MPS2/Common/GLCD_V2M-MPS2.c:550:3
	mov	r0, r7
	mov	r2, r5
	bl	GLCD_DrawHLine
.Ltmp174:
	.loc	2 551 3 is_stmt 1               @ C:/Users/philo/AppData/Local/Arm/Packs/Keil/V2M-MPS2_IOTKit_BSP/1.5.0/Boards/ARM/V2M-MPS2/Common/GLCD_V2M-MPS2.c:551:3
	mov	r0, r7
	mov	r1, r6
	mov	r2, r4
	bl	GLCD_DrawVLine
.Ltmp175:
	.loc	2 552 21                        @ C:/Users/philo/AppData/Local/Arm/Packs/Keil/V2M-MPS2_IOTKit_BSP/1.5.0/Boards/ARM/V2M-MPS2/Common/GLCD_V2M-MPS2.c:552:21
	adds	r0, r5, r7
	.loc	2 552 3 is_stmt 0               @ C:/Users/philo/AppData/Local/Arm/Packs/Keil/V2M-MPS2_IOTKit_BSP/1.5.0/Boards/ARM/V2M-MPS2/Common/GLCD_V2M-MPS2.c:552:3
	mov	r1, r6
	mov	r2, r4
	bl	GLCD_DrawVLine
.Ltmp176:
	.loc	2 554 3 is_stmt 1               @ C:/Users/philo/AppData/Local/Arm/Packs/Keil/V2M-MPS2_IOTKit_BSP/1.5.0/Boards/ARM/V2M-MPS2/Common/GLCD_V2M-MPS2.c:554:3
	movs	r0, #0
	pop	{r3, r4, r5, r6, r7, pc}
.Ltmp177:
.Lfunc_end16:
	.size	GLCD_DrawRectangle, .Lfunc_end16-GLCD_DrawRectangle
	.cfi_endproc
	.cantunwind
	.fnend
                                        @ -- End function
	.section	.text.GLCD_DrawChar,"ax",%progbits
	.hidden	GLCD_DrawChar                   @ -- Begin function GLCD_DrawChar
	.globl	GLCD_DrawChar
	.p2align	2
	.type	GLCD_DrawChar,%function
	.code	16                              @ @GLCD_DrawChar
	.thumb_func
GLCD_DrawChar:
.Lfunc_begin17:
	.loc	2 567 0                         @ C:/Users/philo/AppData/Local/Arm/Packs/Keil/V2M-MPS2_IOTKit_BSP/1.5.0/Boards/ARM/V2M-MPS2/Common/GLCD_V2M-MPS2.c:567:0
	.fnstart
	.cfi_startproc
@ %bb.0:
	@DEBUG_VALUE: GLCD_DrawChar:x <- $r0
	@DEBUG_VALUE: GLCD_DrawChar:y <- $r1
	@DEBUG_VALUE: GLCD_DrawChar:ch <- $r2
	.save	{r4, r5, r6, r7, r8, r9, r10, lr}
	push.w	{r4, r5, r6, r7, r8, r9, r10, lr}
	.cfi_def_cfa_offset 32
	.cfi_offset lr, -4
	.cfi_offset r10, -8
	.cfi_offset r9, -12
	.cfi_offset r8, -16
	.cfi_offset r7, -20
	.cfi_offset r6, -24
	.cfi_offset r5, -28
	.cfi_offset r4, -32
.Ltmp178:
	.loc	2 576 7 prologue_end            @ C:/Users/philo/AppData/Local/Arm/Packs/Keil/V2M-MPS2_IOTKit_BSP/1.5.0/Boards/ARM/V2M-MPS2/Common/GLCD_V2M-MPS2.c:576:7
	ldr.w	r8, __arm_cp.17_0
	mov	r4, r2
.Ltmp179:
	@DEBUG_VALUE: GLCD_DrawChar:ch <- $r4
	@DEBUG_VALUE: GLCD_DrawChar:ch <- $r4
	@DEBUG_VALUE: GLCD_DrawChar:y <- $r1
	@DEBUG_VALUE: GLCD_DrawChar:x <- $r0
	ldr.w	r2, [r8, #4]
.Ltmp180:
	.loc	2 576 7 is_stmt 0               @ C:/Users/philo/AppData/Local/Arm/Packs/Keil/V2M-MPS2_IOTKit_BSP/1.5.0/Boards/ARM/V2M-MPS2/Common/GLCD_V2M-MPS2.c:576:7
	cbz	r2, .LBB17_10
.Ltmp181:
@ %bb.1:
	@DEBUG_VALUE: GLCD_DrawChar:ch <- $r4
	@DEBUG_VALUE: GLCD_DrawChar:y <- $r1
	@DEBUG_VALUE: GLCD_DrawChar:x <- $r0
	.loc	2 580 72 is_stmt 1              @ C:/Users/philo/AppData/Local/Arm/Packs/Keil/V2M-MPS2_IOTKit_BSP/1.5.0/Boards/ARM/V2M-MPS2/Common/GLCD_V2M-MPS2.c:580:72
	ldrh	r5, [r2, #2]
	.loc	2 579 30                        @ C:/Users/philo/AppData/Local/Arm/Packs/Keil/V2M-MPS2_IOTKit_BSP/1.5.0/Boards/ARM/V2M-MPS2/Common/GLCD_V2M-MPS2.c:579:30
	ldrh	r6, [r2]
	.loc	2 578 29                        @ C:/Users/philo/AppData/Local/Arm/Packs/Keil/V2M-MPS2_IOTKit_BSP/1.5.0/Boards/ARM/V2M-MPS2/Common/GLCD_V2M-MPS2.c:578:29
	ldr	r7, [r2, #4]
	.loc	2 580 29                        @ C:/Users/philo/AppData/Local/Arm/Packs/Keil/V2M-MPS2_IOTKit_BSP/1.5.0/Boards/ARM/V2M-MPS2/Common/GLCD_V2M-MPS2.c:580:29
	ldr.w	r9, [r2, #12]
	.loc	2 582 3                         @ C:/Users/philo/AppData/Local/Arm/Packs/Keil/V2M-MPS2_IOTKit_BSP/1.5.0/Boards/ARM/V2M-MPS2/Common/GLCD_V2M-MPS2.c:582:3
	mov	r2, r6
	mov	r3, r5
	bl	GLCD_SetWindow
.Ltmp182:
	@DEBUG_VALUE: GLCD_DrawChar:y <- [DW_OP_LLVM_entry_value 1] $r1
	@DEBUG_VALUE: GLCD_DrawChar:x <- [DW_OP_LLVM_entry_value 1] $r0
	.loc	2 0 3 is_stmt 0                 @ C:/Users/philo/AppData/Local/Arm/Packs/Keil/V2M-MPS2_IOTKit_BSP/1.5.0/Boards/ARM/V2M-MPS2/Common/GLCD_V2M-MPS2.c:0:3
	bl	OUTLINED_FUNCTION_1
.Ltmp183:
	.loc	2 579 36 is_stmt 1              @ C:/Users/philo/AppData/Local/Arm/Packs/Keil/V2M-MPS2_IOTKit_BSP/1.5.0/Boards/ARM/V2M-MPS2/Common/GLCD_V2M-MPS2.c:579:36
	adds	r1, r6, #7
	.loc	2 578 13                        @ C:/Users/philo/AppData/Local/Arm/Packs/Keil/V2M-MPS2_IOTKit_BSP/1.5.0/Boards/ARM/V2M-MPS2/Common/GLCD_V2M-MPS2.c:578:13
	subs	r0, r4, r7
.Ltmp184:
	@DEBUG_VALUE: GLCD_DrawChar:ch <- $r0
	.loc	2 579 40                        @ C:/Users/philo/AppData/Local/Arm/Packs/Keil/V2M-MPS2_IOTKit_BSP/1.5.0/Boards/ARM/V2M-MPS2/Common/GLCD_V2M-MPS2.c:579:40
	lsrs	r1, r1, #3
.Ltmp185:
	@DEBUG_VALUE: GLCD_DrawChar:wb <- $r1
	.loc	2 580 52                        @ C:/Users/philo/AppData/Local/Arm/Packs/Keil/V2M-MPS2_IOTKit_BSP/1.5.0/Boards/ARM/V2M-MPS2/Common/GLCD_V2M-MPS2.c:580:52
	muls	r0, r1, r0
.Ltmp186:
	.loc	2 580 36 is_stmt 0              @ C:/Users/philo/AppData/Local/Arm/Packs/Keil/V2M-MPS2_IOTKit_BSP/1.5.0/Boards/ARM/V2M-MPS2/Common/GLCD_V2M-MPS2.c:580:36
	mla	r4, r0, r5, r9
.Ltmp187:
	@DEBUG_VALUE: GLCD_DrawChar:ptr_ch_bmp <- $r4
	.loc	2 585 3 is_stmt 1               @ C:/Users/philo/AppData/Local/Arm/Packs/Keil/V2M-MPS2_IOTKit_BSP/1.5.0/Boards/ARM/V2M-MPS2/Common/GLCD_V2M-MPS2.c:585:3
	bl	wr_dat_start
.Ltmp188:
	.loc	2 0 3 is_stmt 0                 @ C:/Users/philo/AppData/Local/Arm/Packs/Keil/V2M-MPS2_IOTKit_BSP/1.5.0/Boards/ARM/V2M-MPS2/Common/GLCD_V2M-MPS2.c:0:3
	ldr	r0, __arm_cp.17_1
	ldrh.w	r10, [r8]
	ldr.w	r7, [r8, #4]
	mov.w	r8, #0
	ldrh.w	r9, [r0]
.Ltmp189:
	@DEBUG_VALUE: GLCD_DrawChar:i <- 0
.LBB17_2:                               @ =>This Loop Header: Depth=1
                                        @     Child Loop BB17_4 Depth 2
	@DEBUG_VALUE: GLCD_DrawChar:ptr_ch_bmp <- $r4
	@DEBUG_VALUE: GLCD_DrawChar:y <- [DW_OP_LLVM_entry_value 1] $r1
	@DEBUG_VALUE: GLCD_DrawChar:x <- [DW_OP_LLVM_entry_value 1] $r0
	@DEBUG_VALUE: GLCD_DrawChar:ptr_ch_bmp <- $r4
	@DEBUG_VALUE: GLCD_DrawChar:i <- $r8
	.loc	2 587 32 is_stmt 1              @ C:/Users/philo/AppData/Local/Arm/Packs/Keil/V2M-MPS2_IOTKit_BSP/1.5.0/Boards/ARM/V2M-MPS2/Common/GLCD_V2M-MPS2.c:587:32
	ldrh	r0, [r7, #2]
.Ltmp190:
	.loc	2 587 3 is_stmt 0               @ C:/Users/philo/AppData/Local/Arm/Packs/Keil/V2M-MPS2_IOTKit_BSP/1.5.0/Boards/ARM/V2M-MPS2/Common/GLCD_V2M-MPS2.c:587:3
	cmp	r8, r0
	bhs	.LBB17_9
.Ltmp191:
@ %bb.3:                                @   in Loop: Header=BB17_2 Depth=1
	@DEBUG_VALUE: GLCD_DrawChar:i <- $r8
	@DEBUG_VALUE: GLCD_DrawChar:ptr_ch_bmp <- $r4
	@DEBUG_VALUE: GLCD_DrawChar:y <- [DW_OP_LLVM_entry_value 1] $r1
	@DEBUG_VALUE: GLCD_DrawChar:x <- [DW_OP_LLVM_entry_value 1] $r0
	.loc	2 0 3                           @ C:/Users/philo/AppData/Local/Arm/Packs/Keil/V2M-MPS2_IOTKit_BSP/1.5.0/Boards/ARM/V2M-MPS2/Common/GLCD_V2M-MPS2.c:0:3
	movs	r5, #0
.Ltmp192:
.LBB17_4:                               @   Parent Loop BB17_2 Depth=1
                                        @ =>  This Inner Loop Header: Depth=2
	@DEBUG_VALUE: GLCD_DrawChar:i <- $r8
	@DEBUG_VALUE: GLCD_DrawChar:ptr_ch_bmp <- $r4
	@DEBUG_VALUE: GLCD_DrawChar:y <- [DW_OP_LLVM_entry_value 1] $r1
	@DEBUG_VALUE: GLCD_DrawChar:x <- [DW_OP_LLVM_entry_value 1] $r0
	@DEBUG_VALUE: GLCD_DrawChar:ptr_ch_bmp <- $r4
	@DEBUG_VALUE: GLCD_DrawChar:j <- $r5
	.loc	2 588 34 is_stmt 1              @ C:/Users/philo/AppData/Local/Arm/Packs/Keil/V2M-MPS2_IOTKit_BSP/1.5.0/Boards/ARM/V2M-MPS2/Common/GLCD_V2M-MPS2.c:588:34
	ldrh	r0, [r7]
.Ltmp193:
	.loc	2 588 5 is_stmt 0               @ C:/Users/philo/AppData/Local/Arm/Packs/Keil/V2M-MPS2_IOTKit_BSP/1.5.0/Boards/ARM/V2M-MPS2/Common/GLCD_V2M-MPS2.c:588:5
	cmp	r5, r0
	bhs	.LBB17_8
.Ltmp194:
@ %bb.5:                                @   in Loop: Header=BB17_4 Depth=2
	@DEBUG_VALUE: GLCD_DrawChar:i <- $r8
	@DEBUG_VALUE: GLCD_DrawChar:j <- $r5
	@DEBUG_VALUE: GLCD_DrawChar:ptr_ch_bmp <- $r4
	@DEBUG_VALUE: GLCD_DrawChar:y <- [DW_OP_LLVM_entry_value 1] $r1
	@DEBUG_VALUE: GLCD_DrawChar:x <- [DW_OP_LLVM_entry_value 1] $r0
	.loc	2 589 39 is_stmt 1              @ C:/Users/philo/AppData/Local/Arm/Packs/Keil/V2M-MPS2_IOTKit_BSP/1.5.0/Boards/ARM/V2M-MPS2/Common/GLCD_V2M-MPS2.c:589:39
	and	r6, r5, #7
	.loc	2 589 21 is_stmt 0              @ C:/Users/philo/AppData/Local/Arm/Packs/Keil/V2M-MPS2_IOTKit_BSP/1.5.0/Boards/ARM/V2M-MPS2/Common/GLCD_V2M-MPS2.c:589:21
	ldrb	r0, [r4]
	.loc	2 589 45                        @ C:/Users/philo/AppData/Local/Arm/Packs/Keil/V2M-MPS2_IOTKit_BSP/1.5.0/Boards/ARM/V2M-MPS2/Common/GLCD_V2M-MPS2.c:589:45
	lsrs	r0, r6
	.loc	2 589 19                        @ C:/Users/philo/AppData/Local/Arm/Packs/Keil/V2M-MPS2_IOTKit_BSP/1.5.0/Boards/ARM/V2M-MPS2/Common/GLCD_V2M-MPS2.c:589:19
	lsls	r0, r0, #31
	mov	r0, r10
	it	eq
	moveq	r0, r9
	.loc	2 589 7                         @ C:/Users/philo/AppData/Local/Arm/Packs/Keil/V2M-MPS2_IOTKit_BSP/1.5.0/Boards/ARM/V2M-MPS2/Common/GLCD_V2M-MPS2.c:589:7
	bl	wr_dat_only
.Ltmp195:
	.loc	2 590 26 is_stmt 1              @ C:/Users/philo/AppData/Local/Arm/Packs/Keil/V2M-MPS2_IOTKit_BSP/1.5.0/Boards/ARM/V2M-MPS2/Common/GLCD_V2M-MPS2.c:590:26
	cmp	r6, #7
	bne	.LBB17_7
.Ltmp196:
@ %bb.6:                                @   in Loop: Header=BB17_4 Depth=2
	@DEBUG_VALUE: GLCD_DrawChar:i <- $r8
	@DEBUG_VALUE: GLCD_DrawChar:j <- $r5
	@DEBUG_VALUE: GLCD_DrawChar:ptr_ch_bmp <- $r4
	@DEBUG_VALUE: GLCD_DrawChar:y <- [DW_OP_LLVM_entry_value 1] $r1
	@DEBUG_VALUE: GLCD_DrawChar:x <- [DW_OP_LLVM_entry_value 1] $r0
	.loc	2 590 49 is_stmt 0              @ C:/Users/philo/AppData/Local/Arm/Packs/Keil/V2M-MPS2_IOTKit_BSP/1.5.0/Boards/ARM/V2M-MPS2/Common/GLCD_V2M-MPS2.c:590:49
	ldrh	r0, [r7]
	.loc	2 590 55                        @ C:/Users/philo/AppData/Local/Arm/Packs/Keil/V2M-MPS2_IOTKit_BSP/1.5.0/Boards/ARM/V2M-MPS2/Common/GLCD_V2M-MPS2.c:590:55
	subs	r0, #1
.Ltmp197:
	.loc	2 590 11                        @ C:/Users/philo/AppData/Local/Arm/Packs/Keil/V2M-MPS2_IOTKit_BSP/1.5.0/Boards/ARM/V2M-MPS2/Common/GLCD_V2M-MPS2.c:590:11
	cmp	r5, r0
	it	ne
	addne	r4, #1
.Ltmp198:
.LBB17_7:                               @   in Loop: Header=BB17_4 Depth=2
	@DEBUG_VALUE: GLCD_DrawChar:i <- $r8
	@DEBUG_VALUE: GLCD_DrawChar:j <- $r5
	@DEBUG_VALUE: GLCD_DrawChar:y <- [DW_OP_LLVM_entry_value 1] $r1
	@DEBUG_VALUE: GLCD_DrawChar:x <- [DW_OP_LLVM_entry_value 1] $r0
	@DEBUG_VALUE: GLCD_DrawChar:ptr_ch_bmp <- $r4
	.loc	2 588 42 is_stmt 1              @ C:/Users/philo/AppData/Local/Arm/Packs/Keil/V2M-MPS2_IOTKit_BSP/1.5.0/Boards/ARM/V2M-MPS2/Common/GLCD_V2M-MPS2.c:588:42
	adds	r5, #1
.Ltmp199:
	@DEBUG_VALUE: GLCD_DrawChar:j <- $r5
	.loc	2 0 42 is_stmt 0                @ C:/Users/philo/AppData/Local/Arm/Packs/Keil/V2M-MPS2_IOTKit_BSP/1.5.0/Boards/ARM/V2M-MPS2/Common/GLCD_V2M-MPS2.c:0:42
	b	.LBB17_4
.Ltmp200:
.LBB17_8:                               @   in Loop: Header=BB17_2 Depth=1
	@DEBUG_VALUE: GLCD_DrawChar:i <- $r8
	@DEBUG_VALUE: GLCD_DrawChar:j <- $r5
	@DEBUG_VALUE: GLCD_DrawChar:ptr_ch_bmp <- $r4
	@DEBUG_VALUE: GLCD_DrawChar:y <- [DW_OP_LLVM_entry_value 1] $r1
	@DEBUG_VALUE: GLCD_DrawChar:x <- [DW_OP_LLVM_entry_value 1] $r0
	.loc	2 587 41 is_stmt 1              @ C:/Users/philo/AppData/Local/Arm/Packs/Keil/V2M-MPS2_IOTKit_BSP/1.5.0/Boards/ARM/V2M-MPS2/Common/GLCD_V2M-MPS2.c:587:41
	add.w	r8, r8, #1
.Ltmp201:
	@DEBUG_VALUE: GLCD_DrawChar:i <- $r8
	.loc	2 592 15                        @ C:/Users/philo/AppData/Local/Arm/Packs/Keil/V2M-MPS2_IOTKit_BSP/1.5.0/Boards/ARM/V2M-MPS2/Common/GLCD_V2M-MPS2.c:592:15
	adds	r4, #1
.Ltmp202:
	@DEBUG_VALUE: GLCD_DrawChar:ptr_ch_bmp <- $r4
	.loc	2 0 15 is_stmt 0                @ C:/Users/philo/AppData/Local/Arm/Packs/Keil/V2M-MPS2_IOTKit_BSP/1.5.0/Boards/ARM/V2M-MPS2/Common/GLCD_V2M-MPS2.c:0:15
	b	.LBB17_2
.Ltmp203:
.LBB17_9:
	@DEBUG_VALUE: GLCD_DrawChar:i <- $r8
	@DEBUG_VALUE: GLCD_DrawChar:ptr_ch_bmp <- $r4
	@DEBUG_VALUE: GLCD_DrawChar:y <- [DW_OP_LLVM_entry_value 1] $r1
	@DEBUG_VALUE: GLCD_DrawChar:x <- [DW_OP_LLVM_entry_value 1] $r0
	ldr	r0, __arm_cp.17_2
.Ltmp204:
	b	OUTLINED_FUNCTION_2
.Ltmp205:
.LBB17_10:
	@DEBUG_VALUE: GLCD_DrawChar:ch <- $r4
	@DEBUG_VALUE: GLCD_DrawChar:y <- $r1
	@DEBUG_VALUE: GLCD_DrawChar:x <- $r0
	mov.w	r0, #-1
.Ltmp206:
	@DEBUG_VALUE: GLCD_DrawChar:x <- [DW_OP_LLVM_entry_value 1] $r0
	.loc	2 596 1 is_stmt 1               @ C:/Users/philo/AppData/Local/Arm/Packs/Keil/V2M-MPS2_IOTKit_BSP/1.5.0/Boards/ARM/V2M-MPS2/Common/GLCD_V2M-MPS2.c:596:1
	pop.w	{r4, r5, r6, r7, r8, r9, r10, pc}
.Ltmp207:
	.p2align	2
@ %bb.11:
	.loc	2 0 1 is_stmt 0                 @ C:/Users/philo/AppData/Local/Arm/Packs/Keil/V2M-MPS2_IOTKit_BSP/1.5.0/Boards/ARM/V2M-MPS2/Common/GLCD_V2M-MPS2.c:0:1
__arm_cp.17_0:
	.long	.L_MergedGlobals
.Lcpi_end22:
	.size	__arm_cp.17_0, .Lcpi_end22-__arm_cp.17_0
__arm_cp.17_1:
	.long	background_color
.Lcpi_end23:
	.size	__arm_cp.17_1, .Lcpi_end23-__arm_cp.17_1
__arm_cp.17_2:
	.long	1076895820                      @ 0x4030204c
.Lcpi_end24:
	.size	__arm_cp.17_2, .Lcpi_end24-__arm_cp.17_2
.Lfunc_end17:
	.size	GLCD_DrawChar, .Lfunc_end17-GLCD_DrawChar
	.cfi_endproc
	.cantunwind
	.fnend
                                        @ -- End function
	.section	.text.GLCD_DrawString,"ax",%progbits
	.hidden	GLCD_DrawString                 @ -- Begin function GLCD_DrawString
	.globl	GLCD_DrawString
	.p2align	2
	.type	GLCD_DrawString,%function
	.code	16                              @ @GLCD_DrawString
	.thumb_func
GLCD_DrawString:
.Lfunc_begin18:
	.loc	2 608 0 is_stmt 1               @ C:/Users/philo/AppData/Local/Arm/Packs/Keil/V2M-MPS2_IOTKit_BSP/1.5.0/Boards/ARM/V2M-MPS2/Common/GLCD_V2M-MPS2.c:608:0
	.fnstart
	.cfi_startproc
@ %bb.0:
	@DEBUG_VALUE: GLCD_DrawString:x <- $r0
	@DEBUG_VALUE: GLCD_DrawString:y <- $r1
	@DEBUG_VALUE: GLCD_DrawString:str <- $r2
	.save	{r4, r5, r6, r7, lr}
	.pad	#4
	push	{r3, r4, r5, r6, r7, lr}
	.cfi_def_cfa_offset 24
	.cfi_offset lr, -4
	.cfi_offset r7, -8
	.cfi_offset r6, -12
	.cfi_offset r5, -16
	.cfi_offset r4, -20
	ldr	r7, __arm_cp.18_0
.Ltmp208:
	@DEBUG_VALUE: GLCD_DrawString:str <- $r4
	@DEBUG_VALUE: GLCD_DrawString:x <- $r6
	mov	r4, r2
.Ltmp209:
	mov	r5, r1
.Ltmp210:
	@DEBUG_VALUE: GLCD_DrawString:y <- $r5
	@DEBUG_VALUE: GLCD_DrawString:y <- $r5
	mov	r6, r0
.Ltmp211:
.LBB18_1:                               @ =>This Inner Loop Header: Depth=1
	@DEBUG_VALUE: GLCD_DrawString:y <- $r5
	@DEBUG_VALUE: GLCD_DrawString:x <- $r6
	@DEBUG_VALUE: GLCD_DrawString:str <- $r4
	.loc	2 610 10 prologue_end           @ C:/Users/philo/AppData/Local/Arm/Packs/Keil/V2M-MPS2_IOTKit_BSP/1.5.0/Boards/ARM/V2M-MPS2/Common/GLCD_V2M-MPS2.c:610:10
	ldrb	r2, [r4]
	.loc	2 610 3 is_stmt 0               @ C:/Users/philo/AppData/Local/Arm/Packs/Keil/V2M-MPS2_IOTKit_BSP/1.5.0/Boards/ARM/V2M-MPS2/Common/GLCD_V2M-MPS2.c:610:3
	cbz	r2, .LBB18_3
.Ltmp212:
@ %bb.2:                                @   in Loop: Header=BB18_1 Depth=1
	@DEBUG_VALUE: GLCD_DrawString:x <- $r6
	@DEBUG_VALUE: GLCD_DrawString:y <- $r5
	@DEBUG_VALUE: GLCD_DrawString:str <- $r4
	.loc	2 610 18                        @ C:/Users/philo/AppData/Local/Arm/Packs/Keil/V2M-MPS2_IOTKit_BSP/1.5.0/Boards/ARM/V2M-MPS2/Common/GLCD_V2M-MPS2.c:610:18
	mov	r0, r6
	mov	r1, r5
	bl	GLCD_DrawChar
.Ltmp213:
	.loc	2 610 52                        @ C:/Users/philo/AppData/Local/Arm/Packs/Keil/V2M-MPS2_IOTKit_BSP/1.5.0/Boards/ARM/V2M-MPS2/Common/GLCD_V2M-MPS2.c:610:52
	ldr	r0, [r7, #4]
	.loc	2 610 42                        @ C:/Users/philo/AppData/Local/Arm/Packs/Keil/V2M-MPS2_IOTKit_BSP/1.5.0/Boards/ARM/V2M-MPS2/Common/GLCD_V2M-MPS2.c:610:42
	adds	r4, #1
.Ltmp214:
	@DEBUG_VALUE: GLCD_DrawString:str <- $r4
	.loc	2 610 65                        @ C:/Users/philo/AppData/Local/Arm/Packs/Keil/V2M-MPS2_IOTKit_BSP/1.5.0/Boards/ARM/V2M-MPS2/Common/GLCD_V2M-MPS2.c:610:65
	ldrh	r0, [r0]
	.loc	2 610 49                        @ C:/Users/philo/AppData/Local/Arm/Packs/Keil/V2M-MPS2_IOTKit_BSP/1.5.0/Boards/ARM/V2M-MPS2/Common/GLCD_V2M-MPS2.c:610:49
	add	r6, r0
.Ltmp215:
	@DEBUG_VALUE: GLCD_DrawString:x <- $r6
	.loc	2 0 49                          @ C:/Users/philo/AppData/Local/Arm/Packs/Keil/V2M-MPS2_IOTKit_BSP/1.5.0/Boards/ARM/V2M-MPS2/Common/GLCD_V2M-MPS2.c:0:49
	b	.LBB18_1
.Ltmp216:
.LBB18_3:
	@DEBUG_VALUE: GLCD_DrawString:x <- $r6
	@DEBUG_VALUE: GLCD_DrawString:y <- $r5
	@DEBUG_VALUE: GLCD_DrawString:str <- $r4
	.loc	2 612 3 is_stmt 1               @ C:/Users/philo/AppData/Local/Arm/Packs/Keil/V2M-MPS2_IOTKit_BSP/1.5.0/Boards/ARM/V2M-MPS2/Common/GLCD_V2M-MPS2.c:612:3
	movs	r0, #0
	pop	{r3, r4, r5, r6, r7, pc}
.Ltmp217:
	.p2align	2
@ %bb.4:
	.loc	2 0 3 is_stmt 0                 @ C:/Users/philo/AppData/Local/Arm/Packs/Keil/V2M-MPS2_IOTKit_BSP/1.5.0/Boards/ARM/V2M-MPS2/Common/GLCD_V2M-MPS2.c:0:3
__arm_cp.18_0:
	.long	.L_MergedGlobals
.Lcpi_end25:
	.size	__arm_cp.18_0, .Lcpi_end25-__arm_cp.18_0
.Lfunc_end18:
	.size	GLCD_DrawString, .Lfunc_end18-GLCD_DrawString
	.cfi_endproc
	.cantunwind
	.fnend
                                        @ -- End function
	.section	.text.GLCD_DrawBargraph,"ax",%progbits
	.hidden	GLCD_DrawBargraph               @ -- Begin function GLCD_DrawBargraph
	.globl	GLCD_DrawBargraph
	.p2align	2
	.type	GLCD_DrawBargraph,%function
	.code	16                              @ @GLCD_DrawBargraph
	.thumb_func
GLCD_DrawBargraph:
.Lfunc_begin19:
	.loc	2 628 0 is_stmt 1               @ C:/Users/philo/AppData/Local/Arm/Packs/Keil/V2M-MPS2_IOTKit_BSP/1.5.0/Boards/ARM/V2M-MPS2/Common/GLCD_V2M-MPS2.c:628:0
	.fnstart
	.cfi_startproc
@ %bb.0:
	@DEBUG_VALUE: GLCD_DrawBargraph:x <- $r0
	@DEBUG_VALUE: GLCD_DrawBargraph:y <- $r1
	@DEBUG_VALUE: GLCD_DrawBargraph:width <- $r2
	@DEBUG_VALUE: GLCD_DrawBargraph:height <- $r3
	.save	{r4, r5, r6, r7, r8, r9, r10, lr}
	push.w	{r4, r5, r6, r7, r8, r9, r10, lr}
	.cfi_def_cfa_offset 32
	.cfi_offset lr, -4
	.cfi_offset r10, -8
	.cfi_offset r9, -12
	.cfi_offset r8, -16
	.cfi_offset r7, -20
	.cfi_offset r6, -24
	.cfi_offset r5, -28
	.cfi_offset r4, -32
	mov	r8, r3
	mov	r10, r2
.Ltmp218:
	@DEBUG_VALUE: GLCD_DrawBargraph:val <- [DW_OP_plus_uconst 32] [$sp+0]
	@DEBUG_VALUE: GLCD_DrawBargraph:height <- $r8
	@DEBUG_VALUE: GLCD_DrawBargraph:width <- $r10
	@DEBUG_VALUE: GLCD_DrawBargraph:y <- $r1
	@DEBUG_VALUE: GLCD_DrawBargraph:x <- $r0
	@DEBUG_VALUE: GLCD_DrawBargraph:y <- $r1
	@DEBUG_VALUE: GLCD_DrawBargraph:x <- $r0
	.loc	2 637 3 prologue_end            @ C:/Users/philo/AppData/Local/Arm/Packs/Keil/V2M-MPS2_IOTKit_BSP/1.5.0/Boards/ARM/V2M-MPS2/Common/GLCD_V2M-MPS2.c:637:3
	bl	GLCD_SetWindow
.Ltmp219:
	@DEBUG_VALUE: GLCD_DrawBargraph:y <- [DW_OP_LLVM_entry_value 1] $r1
	@DEBUG_VALUE: GLCD_DrawBargraph:x <- [DW_OP_LLVM_entry_value 1] $r0
	.loc	2 0 3 is_stmt 0                 @ C:/Users/philo/AppData/Local/Arm/Packs/Keil/V2M-MPS2_IOTKit_BSP/1.5.0/Boards/ARM/V2M-MPS2/Common/GLCD_V2M-MPS2.c:0:3
	bl	OUTLINED_FUNCTION_1
.Ltmp220:
	ldr	r0, [sp, #32]
	movs	r1, #100
	.loc	2 631 14 is_stmt 1              @ C:/Users/philo/AppData/Local/Arm/Packs/Keil/V2M-MPS2_IOTKit_BSP/1.5.0/Boards/ARM/V2M-MPS2/Common/GLCD_V2M-MPS2.c:631:14
	mul	r0, r0, r10
	.loc	2 631 23 is_stmt 0              @ C:/Users/philo/AppData/Local/Arm/Packs/Keil/V2M-MPS2_IOTKit_BSP/1.5.0/Boards/ARM/V2M-MPS2/Common/GLCD_V2M-MPS2.c:631:23
	udiv	r6, r0, r1
.Ltmp221:
	@DEBUG_VALUE: GLCD_DrawBargraph:val <- $r6
	.loc	2 640 3 is_stmt 1               @ C:/Users/philo/AppData/Local/Arm/Packs/Keil/V2M-MPS2_IOTKit_BSP/1.5.0/Boards/ARM/V2M-MPS2/Common/GLCD_V2M-MPS2.c:640:3
	bl	wr_dat_start
.Ltmp222:
	.loc	2 0 3 is_stmt 0                 @ C:/Users/philo/AppData/Local/Arm/Packs/Keil/V2M-MPS2_IOTKit_BSP/1.5.0/Boards/ARM/V2M-MPS2/Common/GLCD_V2M-MPS2.c:0:3
	ldr	r0, __arm_cp.19_0
	mov.w	r9, #0
	ldrh	r7, [r0]
.Ltmp223:
	@DEBUG_VALUE: GLCD_DrawBargraph:i <- 0
	ldr	r0, __arm_cp.19_1
	ldrh	r4, [r0]
.Ltmp224:
.LBB19_1:                               @ =>This Loop Header: Depth=1
                                        @     Child Loop BB19_3 Depth 2
	@DEBUG_VALUE: GLCD_DrawBargraph:width <- $r10
	@DEBUG_VALUE: GLCD_DrawBargraph:height <- $r8
	@DEBUG_VALUE: GLCD_DrawBargraph:val <- $r6
	@DEBUG_VALUE: GLCD_DrawBargraph:y <- [DW_OP_LLVM_entry_value 1] $r1
	@DEBUG_VALUE: GLCD_DrawBargraph:x <- [DW_OP_LLVM_entry_value 1] $r0
	@DEBUG_VALUE: GLCD_DrawBargraph:i <- $r9
	.loc	2 641 3 is_stmt 1               @ C:/Users/philo/AppData/Local/Arm/Packs/Keil/V2M-MPS2_IOTKit_BSP/1.5.0/Boards/ARM/V2M-MPS2/Common/GLCD_V2M-MPS2.c:641:3
	cmp	r9, r8
	beq	.LBB19_6
.Ltmp225:
@ %bb.2:                                @   in Loop: Header=BB19_1 Depth=1
	@DEBUG_VALUE: GLCD_DrawBargraph:width <- $r10
	@DEBUG_VALUE: GLCD_DrawBargraph:i <- $r9
	@DEBUG_VALUE: GLCD_DrawBargraph:height <- $r8
	@DEBUG_VALUE: GLCD_DrawBargraph:val <- $r6
	@DEBUG_VALUE: GLCD_DrawBargraph:y <- [DW_OP_LLVM_entry_value 1] $r1
	@DEBUG_VALUE: GLCD_DrawBargraph:x <- [DW_OP_LLVM_entry_value 1] $r0
	.loc	2 0 3 is_stmt 0                 @ C:/Users/philo/AppData/Local/Arm/Packs/Keil/V2M-MPS2_IOTKit_BSP/1.5.0/Boards/ARM/V2M-MPS2/Common/GLCD_V2M-MPS2.c:0:3
	movs	r5, #0
.Ltmp226:
.LBB19_3:                               @   Parent Loop BB19_1 Depth=1
                                        @ =>  This Inner Loop Header: Depth=2
	@DEBUG_VALUE: GLCD_DrawBargraph:width <- $r10
	@DEBUG_VALUE: GLCD_DrawBargraph:i <- $r9
	@DEBUG_VALUE: GLCD_DrawBargraph:height <- $r8
	@DEBUG_VALUE: GLCD_DrawBargraph:val <- $r6
	@DEBUG_VALUE: GLCD_DrawBargraph:y <- [DW_OP_LLVM_entry_value 1] $r1
	@DEBUG_VALUE: GLCD_DrawBargraph:x <- [DW_OP_LLVM_entry_value 1] $r0
	@DEBUG_VALUE: GLCD_DrawBargraph:j <- $r5
	.loc	2 642 5 is_stmt 1               @ C:/Users/philo/AppData/Local/Arm/Packs/Keil/V2M-MPS2_IOTKit_BSP/1.5.0/Boards/ARM/V2M-MPS2/Common/GLCD_V2M-MPS2.c:642:5
	cmp	r10, r5
	beq	.LBB19_5
.Ltmp227:
@ %bb.4:                                @   in Loop: Header=BB19_3 Depth=2
	@DEBUG_VALUE: GLCD_DrawBargraph:width <- $r10
	@DEBUG_VALUE: GLCD_DrawBargraph:i <- $r9
	@DEBUG_VALUE: GLCD_DrawBargraph:height <- $r8
	@DEBUG_VALUE: GLCD_DrawBargraph:val <- $r6
	@DEBUG_VALUE: GLCD_DrawBargraph:j <- $r5
	@DEBUG_VALUE: GLCD_DrawBargraph:y <- [DW_OP_LLVM_entry_value 1] $r1
	@DEBUG_VALUE: GLCD_DrawBargraph:x <- [DW_OP_LLVM_entry_value 1] $r0
	.loc	2 643 10                        @ C:/Users/philo/AppData/Local/Arm/Packs/Keil/V2M-MPS2_IOTKit_BSP/1.5.0/Boards/ARM/V2M-MPS2/Common/GLCD_V2M-MPS2.c:643:10
	mov	r0, r4
	cmp	r5, r6
	it	lo
	movlo	r0, r7
.Ltmp228:
	.loc	2 0 0 is_stmt 0                 @ C:/Users/philo/AppData/Local/Arm/Packs/Keil/V2M-MPS2_IOTKit_BSP/1.5.0/Boards/ARM/V2M-MPS2/Common/GLCD_V2M-MPS2.c:0:0
	bl	wr_dat_only
.Ltmp229:
	.loc	2 642 29 is_stmt 1              @ C:/Users/philo/AppData/Local/Arm/Packs/Keil/V2M-MPS2_IOTKit_BSP/1.5.0/Boards/ARM/V2M-MPS2/Common/GLCD_V2M-MPS2.c:642:29
	adds	r5, #1
.Ltmp230:
	@DEBUG_VALUE: GLCD_DrawBargraph:j <- $r5
	.loc	2 0 29 is_stmt 0                @ C:/Users/philo/AppData/Local/Arm/Packs/Keil/V2M-MPS2_IOTKit_BSP/1.5.0/Boards/ARM/V2M-MPS2/Common/GLCD_V2M-MPS2.c:0:29
	b	.LBB19_3
.Ltmp231:
.LBB19_5:                               @   in Loop: Header=BB19_1 Depth=1
	@DEBUG_VALUE: GLCD_DrawBargraph:width <- $r10
	@DEBUG_VALUE: GLCD_DrawBargraph:i <- $r9
	@DEBUG_VALUE: GLCD_DrawBargraph:height <- $r8
	@DEBUG_VALUE: GLCD_DrawBargraph:val <- $r6
	@DEBUG_VALUE: GLCD_DrawBargraph:j <- $r5
	@DEBUG_VALUE: GLCD_DrawBargraph:y <- [DW_OP_LLVM_entry_value 1] $r1
	@DEBUG_VALUE: GLCD_DrawBargraph:x <- [DW_OP_LLVM_entry_value 1] $r0
	.loc	2 641 28 is_stmt 1              @ C:/Users/philo/AppData/Local/Arm/Packs/Keil/V2M-MPS2_IOTKit_BSP/1.5.0/Boards/ARM/V2M-MPS2/Common/GLCD_V2M-MPS2.c:641:28
	add.w	r9, r9, #1
.Ltmp232:
	@DEBUG_VALUE: GLCD_DrawBargraph:i <- $r9
	.loc	2 0 28 is_stmt 0                @ C:/Users/philo/AppData/Local/Arm/Packs/Keil/V2M-MPS2_IOTKit_BSP/1.5.0/Boards/ARM/V2M-MPS2/Common/GLCD_V2M-MPS2.c:0:28
	b	.LBB19_1
.Ltmp233:
.LBB19_6:
	@DEBUG_VALUE: GLCD_DrawBargraph:width <- $r10
	@DEBUG_VALUE: GLCD_DrawBargraph:i <- $r9
	@DEBUG_VALUE: GLCD_DrawBargraph:height <- $r8
	@DEBUG_VALUE: GLCD_DrawBargraph:val <- $r6
	@DEBUG_VALUE: GLCD_DrawBargraph:y <- [DW_OP_LLVM_entry_value 1] $r1
	@DEBUG_VALUE: GLCD_DrawBargraph:x <- [DW_OP_LLVM_entry_value 1] $r0
	ldr	r0, __arm_cp.19_2
.Ltmp234:
	b	OUTLINED_FUNCTION_2
.Ltmp235:
	.p2align	2
@ %bb.7:
__arm_cp.19_0:
	.long	.L_MergedGlobals
.Lcpi_end26:
	.size	__arm_cp.19_0, .Lcpi_end26-__arm_cp.19_0
__arm_cp.19_1:
	.long	background_color
.Lcpi_end27:
	.size	__arm_cp.19_1, .Lcpi_end27-__arm_cp.19_1
__arm_cp.19_2:
	.long	1076895820                      @ 0x4030204c
.Lcpi_end28:
	.size	__arm_cp.19_2, .Lcpi_end28-__arm_cp.19_2
.Lfunc_end19:
	.size	GLCD_DrawBargraph, .Lfunc_end19-GLCD_DrawBargraph
	.cfi_endproc
	.cantunwind
	.fnend
                                        @ -- End function
	.section	.text.GLCD_DrawBitmap,"ax",%progbits
	.hidden	GLCD_DrawBitmap                 @ -- Begin function GLCD_DrawBitmap
	.globl	GLCD_DrawBitmap
	.p2align	2
	.type	GLCD_DrawBitmap,%function
	.code	16                              @ @GLCD_DrawBitmap
	.thumb_func
GLCD_DrawBitmap:
.Lfunc_begin20:
	.loc	2 667 0 is_stmt 1               @ C:/Users/philo/AppData/Local/Arm/Packs/Keil/V2M-MPS2_IOTKit_BSP/1.5.0/Boards/ARM/V2M-MPS2/Common/GLCD_V2M-MPS2.c:667:0
	.fnstart
	.cfi_startproc
@ %bb.0:
	@DEBUG_VALUE: GLCD_DrawBitmap:x <- $r0
	@DEBUG_VALUE: GLCD_DrawBitmap:y <- $r1
	@DEBUG_VALUE: GLCD_DrawBitmap:width <- $r2
	@DEBUG_VALUE: GLCD_DrawBitmap:height <- $r3
	.save	{r4, r5, r6, r7, r8, lr}
	push.w	{r4, r5, r6, r7, r8, lr}
	.cfi_def_cfa_offset 24
	.cfi_offset lr, -4
	.cfi_offset r8, -8
	.cfi_offset r7, -12
	.cfi_offset r6, -16
	.cfi_offset r5, -20
	.cfi_offset r4, -24
	mov	r5, r3
	mov	r4, r2
.Ltmp236:
	@DEBUG_VALUE: GLCD_DrawBitmap:ptr_bmp <- [DW_OP_plus_uconst 24] [$sp+0]
	@DEBUG_VALUE: GLCD_DrawBitmap:bitmap <- [DW_OP_plus_uconst 24] [$sp+0]
	@DEBUG_VALUE: GLCD_DrawBitmap:height <- $r5
	@DEBUG_VALUE: GLCD_DrawBitmap:width <- $r4
	@DEBUG_VALUE: GLCD_DrawBitmap:y <- $r1
	@DEBUG_VALUE: GLCD_DrawBitmap:x <- $r0
	@DEBUG_VALUE: GLCD_DrawBitmap:y <- $r1
	@DEBUG_VALUE: GLCD_DrawBitmap:x <- $r0
	.loc	2 677 3 prologue_end            @ C:/Users/philo/AppData/Local/Arm/Packs/Keil/V2M-MPS2_IOTKit_BSP/1.5.0/Boards/ARM/V2M-MPS2/Common/GLCD_V2M-MPS2.c:677:3
	bl	GLCD_SetWindow
.Ltmp237:
	@DEBUG_VALUE: GLCD_DrawBitmap:y <- [DW_OP_LLVM_entry_value 1] $r1
	@DEBUG_VALUE: GLCD_DrawBitmap:x <- [DW_OP_LLVM_entry_value 1] $r0
	.loc	2 0 3 is_stmt 0                 @ C:/Users/philo/AppData/Local/Arm/Packs/Keil/V2M-MPS2_IOTKit_BSP/1.5.0/Boards/ARM/V2M-MPS2/Common/GLCD_V2M-MPS2.c:0:3
	bl	OUTLINED_FUNCTION_1
.Ltmp238:
	movs	r0, #0
.Ltmp239:
	.loc	2 681 8 is_stmt 1               @ C:/Users/philo/AppData/Local/Arm/Packs/Keil/V2M-MPS2_IOTKit_BSP/1.5.0/Boards/ARM/V2M-MPS2/Common/GLCD_V2M-MPS2.c:681:8
	sub.w	r8, r0, r4, lsl #1
	.loc	2 681 29 is_stmt 0              @ C:/Users/philo/AppData/Local/Arm/Packs/Keil/V2M-MPS2_IOTKit_BSP/1.5.0/Boards/ARM/V2M-MPS2/Common/GLCD_V2M-MPS2.c:681:29
	subs	r0, r5, #1
	.loc	2 681 32                        @ C:/Users/philo/AppData/Local/Arm/Packs/Keil/V2M-MPS2_IOTKit_BSP/1.5.0/Boards/ARM/V2M-MPS2/Common/GLCD_V2M-MPS2.c:681:32
	mul	r5, r0, r4
.Ltmp240:
	@DEBUG_VALUE: GLCD_DrawBitmap:i <- $r5
	.loc	2 0 32                          @ C:/Users/philo/AppData/Local/Arm/Packs/Keil/V2M-MPS2_IOTKit_BSP/1.5.0/Boards/ARM/V2M-MPS2/Common/GLCD_V2M-MPS2.c:0:32
	ldr	r0, [sp, #24]
	.loc	2 681 8                         @ C:/Users/philo/AppData/Local/Arm/Packs/Keil/V2M-MPS2_IOTKit_BSP/1.5.0/Boards/ARM/V2M-MPS2/Common/GLCD_V2M-MPS2.c:681:8
	add.w	r7, r0, r5, lsl #1
.Ltmp241:
	.loc	2 680 3 is_stmt 1               @ C:/Users/philo/AppData/Local/Arm/Packs/Keil/V2M-MPS2_IOTKit_BSP/1.5.0/Boards/ARM/V2M-MPS2/Common/GLCD_V2M-MPS2.c:680:3
	bl	wr_dat_start
.Ltmp242:
.LBB20_1:                               @ =>This Loop Header: Depth=1
                                        @     Child Loop BB20_3 Depth 2
	@DEBUG_VALUE: GLCD_DrawBitmap:i <- $r5
	@DEBUG_VALUE: GLCD_DrawBitmap:width <- $r4
	@DEBUG_VALUE: GLCD_DrawBitmap:bitmap <- [DW_OP_plus_uconst 24] [$sp+0]
	@DEBUG_VALUE: GLCD_DrawBitmap:ptr_bmp <- [DW_OP_plus_uconst 24] [$sp+0]
	@DEBUG_VALUE: GLCD_DrawBitmap:y <- [DW_OP_LLVM_entry_value 1] $r1
	@DEBUG_VALUE: GLCD_DrawBitmap:x <- [DW_OP_LLVM_entry_value 1] $r0
	@DEBUG_VALUE: GLCD_DrawBitmap:i <- $r5
	.loc	2 681 3                         @ C:/Users/philo/AppData/Local/Arm/Packs/Keil/V2M-MPS2_IOTKit_BSP/1.5.0/Boards/ARM/V2M-MPS2/Common/GLCD_V2M-MPS2.c:681:3
	cmp	r5, #0
	bmi	.LBB20_6
.Ltmp243:
@ %bb.2:                                @   in Loop: Header=BB20_1 Depth=1
	@DEBUG_VALUE: GLCD_DrawBitmap:i <- $r5
	@DEBUG_VALUE: GLCD_DrawBitmap:width <- $r4
	@DEBUG_VALUE: GLCD_DrawBitmap:bitmap <- [DW_OP_plus_uconst 24] [$sp+0]
	@DEBUG_VALUE: GLCD_DrawBitmap:ptr_bmp <- [DW_OP_plus_uconst 24] [$sp+0]
	@DEBUG_VALUE: GLCD_DrawBitmap:y <- [DW_OP_LLVM_entry_value 1] $r1
	@DEBUG_VALUE: GLCD_DrawBitmap:x <- [DW_OP_LLVM_entry_value 1] $r0
	.loc	2 0 3 is_stmt 0                 @ C:/Users/philo/AppData/Local/Arm/Packs/Keil/V2M-MPS2_IOTKit_BSP/1.5.0/Boards/ARM/V2M-MPS2/Common/GLCD_V2M-MPS2.c:0:3
	movs	r6, #0
.Ltmp244:
.LBB20_3:                               @   Parent Loop BB20_1 Depth=1
                                        @ =>  This Inner Loop Header: Depth=2
	@DEBUG_VALUE: GLCD_DrawBitmap:i <- $r5
	@DEBUG_VALUE: GLCD_DrawBitmap:width <- $r4
	@DEBUG_VALUE: GLCD_DrawBitmap:bitmap <- [DW_OP_plus_uconst 24] [$sp+0]
	@DEBUG_VALUE: GLCD_DrawBitmap:ptr_bmp <- [DW_OP_plus_uconst 24] [$sp+0]
	@DEBUG_VALUE: GLCD_DrawBitmap:y <- [DW_OP_LLVM_entry_value 1] $r1
	@DEBUG_VALUE: GLCD_DrawBitmap:x <- [DW_OP_LLVM_entry_value 1] $r0
	@DEBUG_VALUE: GLCD_DrawBitmap:j <- $r6
	.loc	2 682 5 is_stmt 1               @ C:/Users/philo/AppData/Local/Arm/Packs/Keil/V2M-MPS2_IOTKit_BSP/1.5.0/Boards/ARM/V2M-MPS2/Common/GLCD_V2M-MPS2.c:682:5
	cmp	r6, r4
	bge	.LBB20_5
.Ltmp245:
@ %bb.4:                                @   in Loop: Header=BB20_3 Depth=2
	@DEBUG_VALUE: GLCD_DrawBitmap:j <- $r6
	@DEBUG_VALUE: GLCD_DrawBitmap:i <- $r5
	@DEBUG_VALUE: GLCD_DrawBitmap:width <- $r4
	@DEBUG_VALUE: GLCD_DrawBitmap:bitmap <- [DW_OP_plus_uconst 24] [$sp+0]
	@DEBUG_VALUE: GLCD_DrawBitmap:ptr_bmp <- [DW_OP_plus_uconst 24] [$sp+0]
	@DEBUG_VALUE: GLCD_DrawBitmap:y <- [DW_OP_LLVM_entry_value 1] $r1
	@DEBUG_VALUE: GLCD_DrawBitmap:x <- [DW_OP_LLVM_entry_value 1] $r0
	.loc	2 683 19                        @ C:/Users/philo/AppData/Local/Arm/Packs/Keil/V2M-MPS2_IOTKit_BSP/1.5.0/Boards/ARM/V2M-MPS2/Common/GLCD_V2M-MPS2.c:683:19
	ldrh.w	r0, [r7, r6, lsl #1]
	.loc	2 683 7 is_stmt 0               @ C:/Users/philo/AppData/Local/Arm/Packs/Keil/V2M-MPS2_IOTKit_BSP/1.5.0/Boards/ARM/V2M-MPS2/Common/GLCD_V2M-MPS2.c:683:7
	bl	wr_dat_only
.Ltmp246:
	.loc	2 682 38 is_stmt 1              @ C:/Users/philo/AppData/Local/Arm/Packs/Keil/V2M-MPS2_IOTKit_BSP/1.5.0/Boards/ARM/V2M-MPS2/Common/GLCD_V2M-MPS2.c:682:38
	adds	r6, #1
.Ltmp247:
	@DEBUG_VALUE: GLCD_DrawBitmap:j <- $r6
	.loc	2 0 38 is_stmt 0                @ C:/Users/philo/AppData/Local/Arm/Packs/Keil/V2M-MPS2_IOTKit_BSP/1.5.0/Boards/ARM/V2M-MPS2/Common/GLCD_V2M-MPS2.c:0:38
	b	.LBB20_3
.Ltmp248:
.LBB20_5:                               @   in Loop: Header=BB20_1 Depth=1
	@DEBUG_VALUE: GLCD_DrawBitmap:j <- $r6
	@DEBUG_VALUE: GLCD_DrawBitmap:i <- $r5
	@DEBUG_VALUE: GLCD_DrawBitmap:width <- $r4
	@DEBUG_VALUE: GLCD_DrawBitmap:bitmap <- [DW_OP_plus_uconst 24] [$sp+0]
	@DEBUG_VALUE: GLCD_DrawBitmap:ptr_bmp <- [DW_OP_plus_uconst 24] [$sp+0]
	@DEBUG_VALUE: GLCD_DrawBitmap:y <- [DW_OP_LLVM_entry_value 1] $r1
	@DEBUG_VALUE: GLCD_DrawBitmap:x <- [DW_OP_LLVM_entry_value 1] $r0
	.loc	2 681 3 is_stmt 1               @ C:/Users/philo/AppData/Local/Arm/Packs/Keil/V2M-MPS2_IOTKit_BSP/1.5.0/Boards/ARM/V2M-MPS2/Common/GLCD_V2M-MPS2.c:681:3
	add	r7, r8
	.loc	2 681 51 is_stmt 0              @ C:/Users/philo/AppData/Local/Arm/Packs/Keil/V2M-MPS2_IOTKit_BSP/1.5.0/Boards/ARM/V2M-MPS2/Common/GLCD_V2M-MPS2.c:681:51
	subs	r5, r5, r4
.Ltmp249:
	@DEBUG_VALUE: GLCD_DrawBitmap:i <- $r5
	.loc	2 0 51                          @ C:/Users/philo/AppData/Local/Arm/Packs/Keil/V2M-MPS2_IOTKit_BSP/1.5.0/Boards/ARM/V2M-MPS2/Common/GLCD_V2M-MPS2.c:0:51
	b	.LBB20_1
.Ltmp250:
.LBB20_6:
	@DEBUG_VALUE: GLCD_DrawBitmap:i <- $r5
	@DEBUG_VALUE: GLCD_DrawBitmap:width <- $r4
	@DEBUG_VALUE: GLCD_DrawBitmap:bitmap <- [DW_OP_plus_uconst 24] [$sp+0]
	@DEBUG_VALUE: GLCD_DrawBitmap:ptr_bmp <- [DW_OP_plus_uconst 24] [$sp+0]
	@DEBUG_VALUE: GLCD_DrawBitmap:y <- [DW_OP_LLVM_entry_value 1] $r1
	@DEBUG_VALUE: GLCD_DrawBitmap:x <- [DW_OP_LLVM_entry_value 1] $r0
	ldr	r0, __arm_cp.20_0
.Ltmp251:
	.loc	2 170 3 is_stmt 1               @ C:/Users/philo/AppData/Local/Arm/Packs/Keil/V2M-MPS2_IOTKit_BSP/1.5.0/Boards/ARM/V2M-MPS2/Common/GLCD_V2M-MPS2.c:170:3
	ldr	r1, [r0]
	orr	r1, r1, #1
	str	r1, [r0]
.Ltmp252:
	.loc	2 688 3                         @ C:/Users/philo/AppData/Local/Arm/Packs/Keil/V2M-MPS2_IOTKit_BSP/1.5.0/Boards/ARM/V2M-MPS2/Common/GLCD_V2M-MPS2.c:688:3
	movs	r0, #0
	pop.w	{r4, r5, r6, r7, r8, pc}
.Ltmp253:
	.p2align	2
@ %bb.7:
	.loc	2 0 3 is_stmt 0                 @ C:/Users/philo/AppData/Local/Arm/Packs/Keil/V2M-MPS2_IOTKit_BSP/1.5.0/Boards/ARM/V2M-MPS2/Common/GLCD_V2M-MPS2.c:0:3
__arm_cp.20_0:
	.long	1076895820                      @ 0x4030204c
.Lcpi_end29:
	.size	__arm_cp.20_0, .Lcpi_end29-__arm_cp.20_0
.Lfunc_end20:
	.size	GLCD_DrawBitmap, .Lfunc_end20-GLCD_DrawBitmap
	.cfi_endproc
	.cantunwind
	.fnend
                                        @ -- End function
	.section	.text.GLCD_VScroll,"ax",%progbits
	.hidden	GLCD_VScroll                    @ -- Begin function GLCD_VScroll
	.globl	GLCD_VScroll
	.p2align	1
	.type	GLCD_VScroll,%function
	.code	16                              @ @GLCD_VScroll
	.thumb_func
GLCD_VScroll:
.Lfunc_begin21:
	.loc	2 699 0 is_stmt 1               @ C:/Users/philo/AppData/Local/Arm/Packs/Keil/V2M-MPS2_IOTKit_BSP/1.5.0/Boards/ARM/V2M-MPS2/Common/GLCD_V2M-MPS2.c:699:0
	.fnstart
	.cfi_startproc
@ %bb.0:
	@DEBUG_VALUE: GLCD_VScroll:dy <- $r0
	.loc	2 723 3 prologue_end            @ C:/Users/philo/AppData/Local/Arm/Packs/Keil/V2M-MPS2_IOTKit_BSP/1.5.0/Boards/ARM/V2M-MPS2/Common/GLCD_V2M-MPS2.c:723:3
	mov.w	r0, #-1
.Ltmp254:
	@DEBUG_VALUE: GLCD_VScroll:dy <- [DW_OP_LLVM_entry_value 1] $r0
	bx	lr
.Ltmp255:
.Lfunc_end21:
	.size	GLCD_VScroll, .Lfunc_end21-GLCD_VScroll
	.cfi_endproc
	.cantunwind
	.fnend
                                        @ -- End function
	.section	.text.GLCD_FrameBufferAccess,"ax",%progbits
	.hidden	GLCD_FrameBufferAccess          @ -- Begin function GLCD_FrameBufferAccess
	.globl	GLCD_FrameBufferAccess
	.p2align	1
	.type	GLCD_FrameBufferAccess,%function
	.code	16                              @ @GLCD_FrameBufferAccess
	.thumb_func
GLCD_FrameBufferAccess:
.Lfunc_begin22:
	.loc	2 737 0                         @ C:/Users/philo/AppData/Local/Arm/Packs/Keil/V2M-MPS2_IOTKit_BSP/1.5.0/Boards/ARM/V2M-MPS2/Common/GLCD_V2M-MPS2.c:737:0
	.fnstart
	.cfi_startproc
@ %bb.0:
	@DEBUG_VALUE: GLCD_FrameBufferAccess:enable <- [DW_OP_LLVM_convert 1 7, DW_OP_LLVM_convert 8 7, DW_OP_stack_value] $r0
	.save	{r7, lr}
	push	{r7, lr}
	.cfi_def_cfa_offset 8
	.cfi_offset lr, -4
	.cfi_offset r7, -8
	bl	OUTLINED_FUNCTION_3
.Ltmp256:
	.loc	2 742 3 prologue_end            @ C:/Users/philo/AppData/Local/Arm/Packs/Keil/V2M-MPS2_IOTKit_BSP/1.5.0/Boards/ARM/V2M-MPS2/Common/GLCD_V2M-MPS2.c:742:3
	movs	r0, #32
	movs	r1, #0
	bl	wr_reg
.Ltmp257:
	.loc	2 743 3                         @ C:/Users/philo/AppData/Local/Arm/Packs/Keil/V2M-MPS2_IOTKit_BSP/1.5.0/Boards/ARM/V2M-MPS2/Common/GLCD_V2M-MPS2.c:743:3
	movs	r0, #33
	movs	r1, #0
	bl	wr_reg
.Ltmp258:
	.loc	2 0 3 is_stmt 0                 @ C:/Users/philo/AppData/Local/Arm/Packs/Keil/V2M-MPS2_IOTKit_BSP/1.5.0/Boards/ARM/V2M-MPS2/Common/GLCD_V2M-MPS2.c:0:3
	bl	OUTLINED_FUNCTION_1
.Ltmp259:
	.loc	2 746 3 is_stmt 1               @ C:/Users/philo/AppData/Local/Arm/Packs/Keil/V2M-MPS2_IOTKit_BSP/1.5.0/Boards/ARM/V2M-MPS2/Common/GLCD_V2M-MPS2.c:746:3
	movs	r0, #0
	pop	{r7, pc}
.Ltmp260:
.Lfunc_end22:
	.size	GLCD_FrameBufferAccess, .Lfunc_end22-GLCD_FrameBufferAccess
	.cfi_endproc
	.cantunwind
	.fnend
                                        @ -- End function
	.section	.text.GLCD_FrameBufferAddress,"ax",%progbits
	.hidden	GLCD_FrameBufferAddress         @ -- Begin function GLCD_FrameBufferAddress
	.globl	GLCD_FrameBufferAddress
	.p2align	1
	.type	GLCD_FrameBufferAddress,%function
	.code	16                              @ @GLCD_FrameBufferAddress
	.thumb_func
GLCD_FrameBufferAddress:
.Lfunc_begin23:
	.loc	2 754 0                         @ C:/Users/philo/AppData/Local/Arm/Packs/Keil/V2M-MPS2_IOTKit_BSP/1.5.0/Boards/ARM/V2M-MPS2/Common/GLCD_V2M-MPS2.c:754:0
	.fnstart
	.cfi_startproc
@ %bb.0:
	.loc	2 755 3 prologue_end            @ C:/Users/philo/AppData/Local/Arm/Packs/Keil/V2M-MPS2_IOTKit_BSP/1.5.0/Boards/ARM/V2M-MPS2/Common/GLCD_V2M-MPS2.c:755:3
	movs	r0, #0
	bx	lr
.Ltmp261:
.Lfunc_end23:
	.size	GLCD_FrameBufferAddress, .Lfunc_end23-GLCD_FrameBufferAddress
	.cfi_endproc
	.cantunwind
	.fnend
                                        @ -- End function
	.section	.text.spi_tran,"ax",%progbits
	.p2align	2                               @ -- Begin function spi_tran
	.type	spi_tran,%function
	.code	16                              @ @spi_tran
	.thumb_func
spi_tran:
.Lfunc_begin24:
	.loc	2 124 0                         @ C:/Users/philo/AppData/Local/Arm/Packs/Keil/V2M-MPS2_IOTKit_BSP/1.5.0/Boards/ARM/V2M-MPS2/Common/GLCD_V2M-MPS2.c:124:0
	.fnstart
	.cfi_startproc
@ %bb.0:
	@DEBUG_VALUE: spi_tran:byte <- $r0
	ldr	r1, __arm_cp.24_0
	@DEBUG_VALUE: spi_tran:byte <- $r0
.Ltmp262:
	.loc	2 125 21 prologue_end           @ C:/Users/philo/AppData/Local/Arm/Packs/Keil/V2M-MPS2_IOTKit_BSP/1.5.0/Boards/ARM/V2M-MPS2/Common/GLCD_V2M-MPS2.c:125:21
	str	r0, [r1]
.Ltmp263:
.LBB24_1:                               @ =>This Inner Loop Header: Depth=1
	.loc	2 126 27                        @ C:/Users/philo/AppData/Local/Arm/Packs/Keil/V2M-MPS2_IOTKit_BSP/1.5.0/Boards/ARM/V2M-MPS2/Common/GLCD_V2M-MPS2.c:126:27
	ldr	r0, [r1, #4]
.Ltmp264:
	@DEBUG_VALUE: spi_tran:byte <- [DW_OP_LLVM_entry_value 1] $r0
	.loc	2 126 3 is_stmt 0               @ C:/Users/philo/AppData/Local/Arm/Packs/Keil/V2M-MPS2_IOTKit_BSP/1.5.0/Boards/ARM/V2M-MPS2/Common/GLCD_V2M-MPS2.c:126:3
	lsls	r0, r0, #29
	bpl	.LBB24_1
.Ltmp265:
@ %bb.2:
	.loc	2 127 35 is_stmt 1              @ C:/Users/philo/AppData/Local/Arm/Packs/Keil/V2M-MPS2_IOTKit_BSP/1.5.0/Boards/ARM/V2M-MPS2/Common/GLCD_V2M-MPS2.c:127:35
	ldr	r0, [r1]
	.loc	2 127 3 is_stmt 0               @ C:/Users/philo/AppData/Local/Arm/Packs/Keil/V2M-MPS2_IOTKit_BSP/1.5.0/Boards/ARM/V2M-MPS2/Common/GLCD_V2M-MPS2.c:127:3
	bx	lr
.Ltmp266:
	.p2align	2
@ %bb.3:
	.loc	2 0 3                           @ C:/Users/philo/AppData/Local/Arm/Packs/Keil/V2M-MPS2_IOTKit_BSP/1.5.0/Boards/ARM/V2M-MPS2/Common/GLCD_V2M-MPS2.c:0:3
__arm_cp.24_0:
	.long	1075863560                      @ 0x40206008
.Lcpi_end30:
	.size	__arm_cp.24_0, .Lcpi_end30-__arm_cp.24_0
.Lfunc_end24:
	.size	spi_tran, .Lfunc_end24-spi_tran
	.cfi_endproc
	.cantunwind
	.fnend
                                        @ -- End function
	.section	.text.OUTLINED_FUNCTION_0,"ax",%progbits
	.p2align	1                               @ -- Begin function OUTLINED_FUNCTION_0
	.type	OUTLINED_FUNCTION_0,%function
	.code	16                              @ @OUTLINED_FUNCTION_0
	.thumb_func
OUTLINED_FUNCTION_0:
.Lfunc_begin25:
	.fnstart
	.cfi_startproc
@ %bb.0:
	ldr	r1, [r0]
	orr	r1, r1, #1
	str	r1, [r0]
	movs	r0, #0
	pop	{r4, r5, r7, pc}
.Lfunc_end25:
	.size	OUTLINED_FUNCTION_0, .Lfunc_end25-OUTLINED_FUNCTION_0
	.cfi_endproc
	.cantunwind
	.fnend
                                        @ -- End function
	.section	.text.OUTLINED_FUNCTION_1,"ax",%progbits
	.p2align	1                               @ -- Begin function OUTLINED_FUNCTION_1
	.type	OUTLINED_FUNCTION_1,%function
	.code	16                              @ @OUTLINED_FUNCTION_1
	.thumb_func
OUTLINED_FUNCTION_1:
.Lfunc_begin26:
	.fnstart
	.cfi_startproc
@ %bb.0:
	movs	r0, #34
	b	wr_cmd
.Lfunc_end26:
	.size	OUTLINED_FUNCTION_1, .Lfunc_end26-OUTLINED_FUNCTION_1
	.cfi_endproc
	.cantunwind
	.fnend
                                        @ -- End function
	.section	.text.OUTLINED_FUNCTION_2,"ax",%progbits
	.p2align	1                               @ -- Begin function OUTLINED_FUNCTION_2
	.type	OUTLINED_FUNCTION_2,%function
	.code	16                              @ @OUTLINED_FUNCTION_2
	.thumb_func
OUTLINED_FUNCTION_2:
.Lfunc_begin27:
	.fnstart
	.cfi_startproc
@ %bb.0:
	ldr	r1, [r0]
	orr	r1, r1, #1
	str	r1, [r0]
	movs	r0, #0
	pop.w	{r4, r5, r6, r7, r8, r9, r10, pc}
.Lfunc_end27:
	.size	OUTLINED_FUNCTION_2, .Lfunc_end27-OUTLINED_FUNCTION_2
	.cfi_endproc
	.cantunwind
	.fnend
                                        @ -- End function
	.section	.text.OUTLINED_FUNCTION_3,"ax",%progbits
	.p2align	1                               @ -- Begin function OUTLINED_FUNCTION_3
	.type	OUTLINED_FUNCTION_3,%function
	.code	16                              @ @OUTLINED_FUNCTION_3
	.thumb_func
OUTLINED_FUNCTION_3:
.Lfunc_begin28:
	.fnstart
	.cfi_startproc
@ %bb.0:
	movs	r0, #0
	movs	r1, #0
	mov.w	r2, #320
	movs	r3, #240
	b	GLCD_SetWindow
.Lfunc_end28:
	.size	OUTLINED_FUNCTION_3, .Lfunc_end28-OUTLINED_FUNCTION_3
	.cfi_endproc
	.cantunwind
	.fnend
                                        @ -- End function
	.section	.text.OUTLINED_FUNCTION_4,"ax",%progbits
	.p2align	1                               @ -- Begin function OUTLINED_FUNCTION_4
	.type	OUTLINED_FUNCTION_4,%function
	.code	16                              @ @OUTLINED_FUNCTION_4
	.thumb_func
OUTLINED_FUNCTION_4:
.Lfunc_begin29:
	.fnstart
	.cfi_startproc
@ %bb.0:
	ldr	r0, [r5]
	orr	r0, r0, #1
	str	r0, [r5]
	pop	{r4, r5, r6, pc}
.Lfunc_end29:
	.size	OUTLINED_FUNCTION_4, .Lfunc_end29-OUTLINED_FUNCTION_4
	.cfi_endproc
	.cantunwind
	.fnend
                                        @ -- End function
	.type	background_color,%object        @ @background_color
	.section	.data.background_color,"aw",%progbits
	.p2align	1
background_color:
	.short	65535                           @ 0xffff
	.size	background_color, 2

	.type	.L_MergedGlobals,%object        @ @_MergedGlobals
	.section	.bss..L_MergedGlobals,"aw",%nobits
	.p2align	2
.L_MergedGlobals:
	.zero	8
	.size	.L_MergedGlobals, 8

	.section	".note.GNU-stack","",%progbits
	.eabi_attribute	30, 4	@ Tag_ABI_optimization_goals
	.ARM_attribute	16, 1	@ Tag_AV_eba