	.text
	.syntax unified
	.eabi_attribute	67, "2.09"	@ Tag_conformance
	.cpu	cortex-m33
	.eabi_attribute	6, 17	@ Tag_CPU_arch
	.eabi_attribute	7, 77	@ Tag_CPU_arch_profile
	.eabi_attribute	8, 0	@ Tag_ARM_ISA_use
	.eabi_attribute	9, 3	@ Tag_THUMB_ISA_use
	.fpu	fpv5-sp-d16
	.eabi_attribute	27, 1	@ Tag_ABI_HardFP_use
	.eabi_attribute	36, 1	@ Tag_FP_HP_extension
	.eabi_attribute	46, 1	@ Tag_DSP_extension
	.eabi_attribute	34, 1	@ Tag_CPU_unaligned_access
	.eabi_attribute	17, 1	@ Tag_ABI_PCS_GOT_use
	.eabi_attribute	20, 2	@ Tag_ABI_FP_denormal
	.eabi_attribute	21, 0	@ Tag_ABI_FP_exceptions
	.eabi_attribute	23, 1	@ Tag_ABI_FP_number_model
	.eabi_attribute	24, 1	@ Tag_ABI_align_needed
	.eabi_attribute	25, 1	@ Tag_ABI_align_preserved
	.eabi_attribute	28, 1	@ Tag_ABI_VFP_args
	.eabi_attribute	38, 1	@ Tag_ABI_FP_16bit_format
	.eabi_attribute	18, 2	@ Tag_ABI_PCS_wchar_t
	.eabi_attribute	26, 1	@ Tag_ABI_enum_size
	.eabi_attribute	14, 0	@ Tag_ABI_PCS_R9_use
	.file	"main_s.c"
	.file	1 "C:\\Users\\philo\\Documents\\GitHub\\code-CortexM-ret2user\\blinky_tz\\Boards\\ARM\\V2M-MPS2\\IOTKit_CM33\\IOTKit_CM33_S_NS\\IOTKit_CM33_s" "main_s.c"
	.file	2 "C:\\" "Keil_v5\\ARM\\ARMCLANG\\Bin\\..\\include\\stdint.h"
	.file	3 "C:/Users/philo/AppData/Local/Arm/Packs/Keil/V2M-MPS2_IOTKit_BSP/1.5.0/Device/IOTKit_CM33/Include" "IOTKit_CM33_FP.h"
	.file	4 "C:/Users/philo/AppData/Local/Arm/Packs/ARM/CMSIS/5.9.0/CMSIS/Core/Include" "core_cm33.h"
	.section	.text.Secure_LED_On,"ax",%progbits
	.hidden	Secure_LED_On                   @ -- Begin function Secure_LED_On
	.globl	Secure_LED_On
	.p2align	1
	.type	Secure_LED_On,%function
	.code	16                              @ @Secure_LED_On
	.thumb_func
	.globl	__acle_se_Secure_LED_On
	.type	__acle_se_Secure_LED_On,%function
__acle_se_Secure_LED_On:
Secure_LED_On:
.Lfunc_begin0:
	.loc	1 40 0                          @ main_s.c:40:0
	.fnstart
	.cfi_sections .debug_frame
	.cfi_startproc
@ %bb.0:
	@DEBUG_VALUE: Secure_LED_On:num <- $r0
	@DEBUG_VALUE: Secure_LED_On:num <- $r0
	@DEBUG_VALUE: Secure_LED_On:num <- $r0
	.save	{r7, lr}
	push	{r7, lr}
	.cfi_def_cfa_offset 8
	.cfi_offset lr, -4
	.cfi_offset r7, -8
.Ltmp0:
	.loc	1 41 10 prologue_end            @ main_s.c:41:10
	bl	LED_On
.Ltmp1:
	@DEBUG_VALUE: Secure_LED_On:num <- [DW_OP_LLVM_entry_value 1] $r0
	.loc	1 41 3 is_stmt 0                @ main_s.c:41:3
	pop.w	{r7, lr}
	vmrs	r12, fpscr
	vmov	d0, lr, lr
	vmov	d1, lr, lr
	vmov	d2, lr, lr
	vmov	d3, lr, lr
	vmov	d4, lr, lr
	vmov	d5, lr, lr
	vmov	d6, lr, lr
	vmov	d7, lr, lr
	mov	r1, lr
	mov	r2, lr
	mov	r3, lr
	bic	r12, r12, #159
	bic	r12, r12, #4026531840
	vmsr	fpscr, r12
	mov	r12, lr
	msr	apsr_nzcvqg, lr
	bxns	lr
.Ltmp2:
.Lfunc_end0:
	.size	Secure_LED_On, .Lfunc_end0-Secure_LED_On
	.cfi_endproc
	.cantunwind
	.fnend
                                        @ -- End function
	.section	.text.Secure_LED_Off,"ax",%progbits
	.hidden	Secure_LED_Off                  @ -- Begin function Secure_LED_Off
	.globl	Secure_LED_Off
	.p2align	1
	.type	Secure_LED_Off,%function
	.code	16                              @ @Secure_LED_Off
	.thumb_func
	.globl	__acle_se_Secure_LED_Off
	.type	__acle_se_Secure_LED_Off,%function
__acle_se_Secure_LED_Off:
Secure_LED_Off:
.Lfunc_begin1:
	.loc	1 46 0 is_stmt 1                @ main_s.c:46:0
	.fnstart
	.cfi_startproc
@ %bb.0:
	@DEBUG_VALUE: Secure_LED_Off:num <- $r0
	@DEBUG_VALUE: Secure_LED_Off:num <- $r0
	@DEBUG_VALUE: Secure_LED_Off:num <- $r0
	.save	{r7, lr}
	push	{r7, lr}
	.cfi_def_cfa_offset 8
	.cfi_offset lr, -4
	.cfi_offset r7, -8
.Ltmp3:
	.loc	1 47 10 prologue_end            @ main_s.c:47:10
	bl	LED_Off
.Ltmp4:
	@DEBUG_VALUE: Secure_LED_Off:num <- [DW_OP_LLVM_entry_value 1] $r0
	.loc	1 47 3 is_stmt 0                @ main_s.c:47:3
	pop.w	{r7, lr}
	vmrs	r12, fpscr
	vmov	d0, lr, lr
	vmov	d1, lr, lr
	vmov	d2, lr, lr
	vmov	d3, lr, lr
	vmov	d4, lr, lr
	vmov	d5, lr, lr
	vmov	d6, lr, lr
	vmov	d7, lr, lr
	mov	r1, lr
	mov	r2, lr
	mov	r3, lr
	bic	r12, r12, #159
	bic	r12, r12, #4026531840
	vmsr	fpscr, r12
	mov	r12, lr
	msr	apsr_nzcvqg, lr
	bxns	lr
.Ltmp5:
.Lfunc_end1:
	.size	Secure_LED_Off, .Lfunc_end1-Secure_LED_Off
	.cfi_endproc
	.cantunwind
	.fnend
                                        @ -- End function
	.section	.text.Secure_printf,"ax",%progbits
	.hidden	Secure_printf                   @ -- Begin function Secure_printf
	.globl	Secure_printf
	.p2align	2
	.type	Secure_printf,%function
	.code	16                              @ @Secure_printf
	.thumb_func
	.globl	__acle_se_Secure_printf
	.type	__acle_se_Secure_printf,%function
__acle_se_Secure_printf:
Secure_printf:
.Lfunc_begin2:
	.loc	1 52 0 is_stmt 1                @ main_s.c:52:0
	.fnstart
	.cfi_startproc
@ %bb.0:
	@DEBUG_VALUE: Secure_printf:pString <- $r0
	.save	{r7, lr}
	push	{r7, lr}
	.cfi_def_cfa_offset 8
	.cfi_offset lr, -4
	.cfi_offset r7, -8
	mov	r1, r0
.Ltmp6:
	@DEBUG_VALUE: Secure_printf:pString <- $r1
	.loc	1 53 3 prologue_end             @ main_s.c:53:3
	ldr	r0, __arm_cp.2_0
	@DEBUG_VALUE: Secure_printf:pString <- $r1
	bl	__2printf
.Ltmp7:
	.loc	1 54 1                          @ main_s.c:54:1
	pop.w	{r7, lr}
	vmrs	r12, fpscr
	vmov	d0, lr, lr
	vmov	d1, lr, lr
	vmov	d2, lr, lr
	vmov	d3, lr, lr
	vmov	d4, lr, lr
	vmov	d5, lr, lr
	vmov	d6, lr, lr
	vmov	d7, lr, lr
	mov	r0, lr
	mov	r1, lr
	mov	r2, lr
	mov	r3, lr
	bic	r12, r12, #159
	bic	r12, r12, #4026531840
	vmsr	fpscr, r12
	mov	r12, lr
	msr	apsr_nzcvqg, lr
	bxns	lr
.Ltmp8:
	.p2align	2
@ %bb.1:
	.loc	1 0 1 is_stmt 0                 @ main_s.c:0:1
__arm_cp.2_0:
	.long	.L.str
.Lcpi_end0:
	.size	__arm_cp.2_0, .Lcpi_end0-__arm_cp.2_0
.Lfunc_end2:
	.size	Secure_printf, .Lfunc_end2-Secure_printf
	.cfi_endproc
	.cantunwind
	.fnend
                                        @ -- End function
	.section	.text.Secure_LED_On_callback,"ax",%progbits
	.hidden	Secure_LED_On_callback          @ -- Begin function Secure_LED_On_callback
	.globl	Secure_LED_On_callback
	.p2align	2
	.type	Secure_LED_On_callback,%function
	.code	16                              @ @Secure_LED_On_callback
	.thumb_func
	.globl	__acle_se_Secure_LED_On_callback
	.type	__acle_se_Secure_LED_On_callback,%function
__acle_se_Secure_LED_On_callback:
Secure_LED_On_callback:
.Lfunc_begin3:
	.loc	1 62 0 is_stmt 1                @ main_s.c:62:0
	.fnstart
	.cfi_startproc
@ %bb.0:
	@DEBUG_VALUE: Secure_LED_On_callback:callback <- $r0
	@DEBUG_VALUE: Secure_LED_On_callback:callback <- $r0
	.loc	1 63 22 prologue_end            @ main_s.c:63:22
	ldr	r1, __arm_cp.3_0
	.loc	1 64 3                          @ main_s.c:64:3
	vmov	d0, lr, lr
	vmov	d1, lr, lr
	vmov	d2, lr, lr
	vmov	d3, lr, lr
	vmov	d4, lr, lr
	vmov	d5, lr, lr
	vmov	d6, lr, lr
	vmov	d7, lr, lr
	mov	r2, lr
	mov	r3, lr
	.loc	1 63 22                         @ main_s.c:63:22
	str	r0, [r1]
	.loc	1 64 3                          @ main_s.c:64:3
	movs	r0, #0
.Ltmp9:
	@DEBUG_VALUE: Secure_LED_On_callback:callback <- [DW_OP_LLVM_entry_value 1] $r0
	mov	r1, lr
	vmrs	r12, fpscr
	bic	r12, r12, #159
	bic	r12, r12, #4026531840
	vmsr	fpscr, r12
	mov	r12, lr
	msr	apsr_nzcvqg, lr
	bxns	lr
.Ltmp10:
	.p2align	2
@ %bb.1:
	.loc	1 0 3 is_stmt 0                 @ main_s.c:0:3
__arm_cp.3_0:
	.long	.L_MergedGlobals
.Lcpi_end1:
	.size	__arm_cp.3_0, .Lcpi_end1-__arm_cp.3_0
.Lfunc_end3:
	.size	Secure_LED_On_callback, .Lfunc_end3-Secure_LED_On_callback
	.cfi_endproc
	.cantunwind
	.fnend
                                        @ -- End function
	.section	.text.Secure_LED_Off_callback,"ax",%progbits
	.hidden	Secure_LED_Off_callback         @ -- Begin function Secure_LED_Off_callback
	.globl	Secure_LED_Off_callback
	.p2align	2
	.type	Secure_LED_Off_callback,%function
	.code	16                              @ @Secure_LED_Off_callback
	.thumb_func
	.globl	__acle_se_Secure_LED_Off_callback
	.type	__acle_se_Secure_LED_Off_callback,%function
__acle_se_Secure_LED_Off_callback:
Secure_LED_Off_callback:
.Lfunc_begin4:
	.loc	1 69 0 is_stmt 1                @ main_s.c:69:0
	.fnstart
	.cfi_startproc
@ %bb.0:
	@DEBUG_VALUE: Secure_LED_Off_callback:callback <- $r0
	@DEBUG_VALUE: Secure_LED_Off_callback:callback <- $r0
	.loc	1 70 23 prologue_end            @ main_s.c:70:23
	ldr	r1, __arm_cp.4_0
	.loc	1 71 3                          @ main_s.c:71:3
	vmov	d0, lr, lr
	vmov	d1, lr, lr
	vmov	d2, lr, lr
	vmov	d3, lr, lr
	vmov	d4, lr, lr
	vmov	d5, lr, lr
	vmov	d6, lr, lr
	vmov	d7, lr, lr
	mov	r2, lr
	mov	r3, lr
	.loc	1 70 23                         @ main_s.c:70:23
	str	r0, [r1, #4]
	.loc	1 71 3                          @ main_s.c:71:3
	movs	r0, #0
.Ltmp11:
	@DEBUG_VALUE: Secure_LED_Off_callback:callback <- [DW_OP_LLVM_entry_value 1] $r0
	mov	r1, lr
	vmrs	r12, fpscr
	bic	r12, r12, #159
	bic	r12, r12, #4026531840
	vmsr	fpscr, r12
	mov	r12, lr
	msr	apsr_nzcvqg, lr
	bxns	lr
.Ltmp12:
	.p2align	2
@ %bb.1:
	.loc	1 0 3 is_stmt 0                 @ main_s.c:0:3
__arm_cp.4_0:
	.long	.L_MergedGlobals
.Lcpi_end2:
	.size	__arm_cp.4_0, .Lcpi_end2-__arm_cp.4_0
.Lfunc_end4:
	.size	Secure_LED_Off_callback, .Lfunc_end4-Secure_LED_Off_callback
	.cfi_endproc
	.cantunwind
	.fnend
                                        @ -- End function
	.section	.text.SysTick_Handler,"ax",%progbits
	.hidden	SysTick_Handler                 @ -- Begin function SysTick_Handler
	.globl	SysTick_Handler
	.p2align	2
	.type	SysTick_Handler,%function
	.code	16                              @ @SysTick_Handler
	.thumb_func
SysTick_Handler:
.Lfunc_begin5:
	.loc	1 79 0 is_stmt 1                @ main_s.c:79:0
	.fnstart
	.cfi_startproc
@ %bb.0:
	.save	{r4, r5, r7, lr}
	push	{r4, r5, r7, lr}
	.cfi_def_cfa_offset 16
	.cfi_offset lr, -4
	.cfi_offset r7, -8
	.cfi_offset r5, -12
	.cfi_offset r4, -16
.Ltmp13:
	.loc	1 83 16 prologue_end            @ main_s.c:83:16
	ldr	r4, __arm_cp.5_0
	ldr	r1, [r4, #8]
	adds	r0, r1, #1
	.loc	1 83 3 is_stmt 0                @ main_s.c:83:3
	cmp	r1, #99
	.loc	1 83 16                         @ main_s.c:83:16
	str	r0, [r4, #8]
	.loc	1 83 3                          @ main_s.c:83:3
	beq	.LBB5_13
@ %bb.1:
	cmp	r1, #20
	beq	.LBB5_6
@ %bb.2:
	cmp	r1, #30
	beq	.LBB5_7
@ %bb.3:
	cmp	r1, #50
	beq	.LBB5_8
@ %bb.4:
	cmp	r1, #10
	bne	.LBB5_11
@ %bb.5:
.Ltmp14:
	.loc	1 85 7 is_stmt 1                @ main_s.c:85:7
	movs	r0, #0
	pop.w	{r4, r5, r7, lr}
.Ltmp15:
	b	LED_On
.Ltmp16:
.LBB5_6:
	.loc	1 88 7                          @ main_s.c:88:7
	movs	r0, #0
	pop.w	{r4, r5, r7, lr}
.Ltmp17:
	b	LED_Off
.Ltmp18:
.LBB5_7:
	.loc	1 91 11                         @ main_s.c:91:11
	ldr	r1, [r4]
	b	.LBB5_9
.Ltmp19:
.LBB5_8:
	.loc	1 97 11                         @ main_s.c:97:11
	ldr	r1, [r4, #4]
.Ltmp20:
.LBB5_9:
	.loc	1 0 0 is_stmt 0                 @ main_s.c:0:0
	cbz	r1, .LBB5_12
@ %bb.10:
	movs	r0, #1
	push.w	{r4, r5, r6, r7, r8, r9, r10, r11}
	bic	r1, r1, #1
	sub	sp, #136
	vlstm	sp
	mov	r2, r1
	mov	r3, r1
	mov	r4, r1
	mov	r5, r1
	mov	r6, r1
	mov	r7, r1
	mov	r8, r1
	mov	r9, r1
	mov	r10, r1
	mov	r11, r1
	mov	r12, r1
	msr	apsr_nzcvqg, r1
	blxns	r1
.Ltmp21:
	vlldm	sp
	add	sp, #136
	pop.w	{r4, r5, r6, r7, r8, r9, r10, r11}
.Ltmp22:
	.loc	1 115 1 is_stmt 1               @ main_s.c:115:1
	pop	{r4, r5, r7, pc}
.LBB5_11:
.Ltmp23:
	.loc	1 111 11                        @ main_s.c:111:11
	cmp	r0, #100
	itt	hs
	movhs	r0, #0
.Ltmp24:
	.loc	1 112 15                        @ main_s.c:112:15
	strhs	r0, [r4, #8]
.Ltmp25:
.LBB5_12:
	.loc	1 115 1                         @ main_s.c:115:1
	pop	{r4, r5, r7, pc}
.LBB5_13:
.Ltmp26:
	.loc	1 104 23                        @ main_s.c:104:23
	ldr	r0, [r4, #12]
	movs	r5, #0
	adds	r1, r0, #1
.Ltmp27:
	.loc	1 103 13                        @ main_s.c:103:13
	str	r5, [r4, #8]
	.loc	1 104 11                        @ main_s.c:104:11
	cmp	r0, #3
.Ltmp28:
	.loc	1 104 23 is_stmt 0              @ main_s.c:104:23
	str	r1, [r4, #12]
.Ltmp29:
	.loc	1 104 11                        @ main_s.c:104:11
	bne	.LBB5_12
@ %bb.14:
.Ltmp30:
	.loc	1 106 9 is_stmt 1               @ main_s.c:106:9
	ldr	r0, __arm_cp.5_1
	ldr	r1, __arm_cp.5_2
	bl	__2printf
.Ltmp31:
	.loc	1 107 22                        @ main_s.c:107:22
	str	r5, [r4, #12]
.Ltmp32:
	.loc	1 115 1                         @ main_s.c:115:1
	pop	{r4, r5, r7, pc}
.Ltmp33:
	.p2align	2
@ %bb.15:
	.loc	1 0 1 is_stmt 0                 @ main_s.c:0:1
__arm_cp.5_0:
	.long	.L_MergedGlobals
.Lcpi_end3:
	.size	__arm_cp.5_0, .Lcpi_end3-__arm_cp.5_0
__arm_cp.5_1:
	.long	.L.str
.Lcpi_end4:
	.size	__arm_cp.5_1, .Lcpi_end4-__arm_cp.5_1
__arm_cp.5_2:
	.long	text
.Lcpi_end5:
	.size	__arm_cp.5_2, .Lcpi_end5-__arm_cp.5_2
.Lfunc_end5:
	.size	SysTick_Handler, .Lfunc_end5-SysTick_Handler
	.cfi_endproc
	.file	5 "C:/Users/philo/AppData/Local/Arm/Packs/Keil/MDK-Middleware/7.15.0/Board" "Board_LED.h"
	.cantunwind
	.fnend
                                        @ -- End function
	.section	.text.main,"ax",%progbits
	.hidden	main                            @ -- Begin function main
	.globl	main
	.p2align	2
	.type	main,%function
	.code	16                              @ @main
	.thumb_func
main:
.Lfunc_begin6:
	.loc	1 123 0 is_stmt 1               @ main_s.c:123:0
	.fnstart
	.cfi_startproc
@ %bb.0:
	.save	{r4, r5, r6, r7, lr}
	push	{r4, r5, r6, r7, lr}
	.cfi_def_cfa_offset 20
	.cfi_offset lr, -4
	.cfi_offset r7, -8
	.cfi_offset r6, -12
	.cfi_offset r5, -16
	.cfi_offset r4, -20
	.pad	#20
	sub	sp, #20
	.cfi_def_cfa_offset 40
	ldr	r0, __arm_cp.6_0
	ldr	r1, __arm_cp.6_1
.Ltmp34:
	.loc	1 125 64 prologue_end           @ main_s.c:125:64
	ldr	r4, [r0]
.Ltmp35:
	@DEBUG_VALUE: main:NonSecure_ResetHandler <- $r4
	.loc	1 0 64 is_stmt 0                @ main_s.c:0:64
	mov.w	r0, #2097152
	.loc	1 124 64 is_stmt 1              @ main_s.c:124:64
	ldr	r0, [r0]
.Ltmp36:
	@DEBUG_VALUE: main:NonSecure_StackPointer <- $r0
	.loc	4 2958 16                       @ C:/Users/philo/AppData/Local/Arm/Packs/ARM/CMSIS/5.9.0/CMSIS/Core/Include\core_cm33.h:2958:16
	ldr	r1, [r1]
.Ltmp37:
	@DEBUG_VALUE: SCB_GetFPUType:mvfr0 <- $r1
	.loc	4 2959 19                       @ C:/Users/philo/AppData/Local/Arm/Packs/ARM/CMSIS/5.9.0/CMSIS/Core/Include\core_cm33.h:2959:19
	and	r1, r1, #4080
.Ltmp38:
	.loc	4 2959 12 is_stmt 0             @ C:/Users/philo/AppData/Local/Arm/Packs/ARM/CMSIS/5.9.0/CMSIS/Core/Include\core_cm33.h:2959:12
	sub.w	r2, r1, #32
	clz	r2, r2
	lsrs	r2, r2, #5
	cmp.w	r1, #544
	ldr	r1, __arm_cp.6_2
	it	eq
	moveq	r2, #2
.Ltmp39:
	.loc	1 128 21 is_stmt 1              @ main_s.c:128:21
	str	r2, [sp, #16]
	.loc	1 129 19                        @ main_s.c:129:19
	str	r1, [sp, #12]
	ldr	r1, __arm_cp.6_3
	.loc	1 130 19                        @ main_s.c:130:19
	str	r1, [sp, #8]
	ldr	r1, __arm_cp.6_4
	.loc	1 131 19                        @ main_s.c:131:19
	str	r1, [sp, #4]
	.loc	1 133 8                         @ main_s.c:133:8
	vldr	s0, [sp, #4]
	.loc	1 133 14 is_stmt 0              @ main_s.c:133:14
	vldr	s2, [sp, #12]
	.loc	1 133 19                        @ main_s.c:133:19
	vldr	s4, [sp, #8]
	.loc	1 133 17                        @ main_s.c:133:17
	vdiv.f32	s2, s2, s4
	.loc	1 133 11                        @ main_s.c:133:11
	vmul.f32	s0, s0, s2
	.loc	1 133 6                         @ main_s.c:133:6
	vstr	s0, [sp, #4]
.Ltmp40:
	.file	6 "C:/Users/philo/AppData/Local/Arm/Packs/ARM/CMSIS/5.9.0/CMSIS/Core/Include" "cmsis_armclang.h"
	.loc	6 918 3 is_stmt 1               @ C:/Users/philo/AppData/Local/Arm/Packs/ARM/CMSIS/5.9.0/CMSIS/Core/Include/cmsis_armclang.h:918:3
	@APP
	mrs	r1, msp
	@NO_APP
.Ltmp41:
	@DEBUG_VALUE: __get_MSP:result <- $r1
	.loc	6 864 3                         @ C:/Users/philo/AppData/Local/Arm/Packs/ARM/CMSIS/5.9.0/CMSIS/Core/Include/cmsis_armclang.h:864:3
	@APP
	mrs	r1, psp
	@NO_APP
.Ltmp42:
	@DEBUG_VALUE: __TZ_set_MSP_NS:topOfMainStack <- $r0
	@DEBUG_VALUE: __get_PSP:result <- $r1
	.loc	6 958 3                         @ C:/Users/philo/AppData/Local/Arm/Packs/ARM/CMSIS/5.9.0/CMSIS/Core/Include/cmsis_armclang.h:958:3
	@APP
	msr	msp_ns, r0
	@NO_APP
.Ltmp43:
	.loc	6 933 3                         @ C:/Users/philo/AppData/Local/Arm/Packs/ARM/CMSIS/5.9.0/CMSIS/Core/Include/cmsis_armclang.h:933:3
	@APP
	mrs	r0, msp_ns
	@NO_APP
.Ltmp44:
	@DEBUG_VALUE: __TZ_get_MSP_NS:result <- $r0
	.loc	6 0 3 is_stmt 0                 @ C:/Users/philo/AppData/Local/Arm/Packs/ARM/CMSIS/5.9.0/CMSIS/Core/Include/cmsis_armclang.h:0:3
	mov.w	r0, #570425344
.Ltmp45:
	@DEBUG_VALUE: __TZ_set_PSP_NS:topOfProcStack <- 570425344
	.loc	6 904 3 is_stmt 1               @ C:/Users/philo/AppData/Local/Arm/Packs/ARM/CMSIS/5.9.0/CMSIS/Core/Include/cmsis_armclang.h:904:3
	@APP
	msr	psp_ns, r0
	@NO_APP
.Ltmp46:
	.loc	6 879 3                         @ C:/Users/philo/AppData/Local/Arm/Packs/ARM/CMSIS/5.9.0/CMSIS/Core/Include/cmsis_armclang.h:879:3
	@APP
	mrs	r0, psp_ns
	@NO_APP
.Ltmp47:
	@DEBUG_VALUE: __TZ_get_PSP_NS:result <- $r0
	.loc	1 143 3                         @ main_s.c:143:3
	bl	SystemCoreClockUpdate
.Ltmp48:
	.loc	1 145 3                         @ main_s.c:145:3
	bl	stdout_init
.Ltmp49:
	.loc	1 146 3                         @ main_s.c:146:3
	bl	LED_Initialize
.Ltmp50:
	.loc	1 147 3                         @ main_s.c:147:3
	bl	GLCD_Initialize
.Ltmp51:
	.loc	1 150 3                         @ main_s.c:150:3
	ldr	r0, __arm_cp.6_5
	bl	GLCD_SetFont
.Ltmp52:
	.loc	1 151 3                         @ main_s.c:151:3
	ldr	r7, __arm_cp.6_6
	movw	r0, #65535
	blx	r7
.Ltmp53:
	.loc	1 152 3                         @ main_s.c:152:3
	bl	GLCD_ClearScreen
.Ltmp54:
	.loc	1 153 3                         @ main_s.c:153:3
	movs	r0, #31
	blx	r7
.Ltmp55:
	.loc	1 154 3                         @ main_s.c:154:3
	mov.w	r0, #63488
	bl	GLCD_SetForegroundColor
.Ltmp56:
	.loc	1 155 3                         @ main_s.c:155:3
	ldr	r6, __arm_cp.6_8
	adr	r2, .LCPI6_7
	movs	r0, #0
	movs	r1, #0
	movs	r5, #0
	blx	r6
.Ltmp57:
	.loc	1 156 3                         @ main_s.c:156:3
	adr	r2, .LCPI6_9
	movs	r0, #0
	movs	r1, #24
	blx	r6
.Ltmp58:
	.loc	1 157 3                         @ main_s.c:157:3
	adr	r2, .LCPI6_10
	movs	r0, #0
	movs	r1, #48
	blx	r6
.Ltmp59:
	.loc	1 159 3                         @ main_s.c:159:3
	movw	r0, #65535
	blx	r7
.Ltmp60:
	.loc	1 160 3                         @ main_s.c:160:3
	movs	r0, #0
	bl	GLCD_SetForegroundColor
.Ltmp61:
	.loc	1 0 3 is_stmt 0                 @ main_s.c:0:3
	ldr	r7, __arm_cp.6_11
	movw	r1, #3361
	.loc	1 161 3 is_stmt 1               @ main_s.c:161:3
	adr	r2, .LCPI6_12
	adr	r3, .LCPI6_13
	.loc	1 161 17 is_stmt 0              @ main_s.c:161:17
	ldr.w	r0, [r7, #3312]
	.loc	1 161 29                        @ main_s.c:161:29
	ubfx	r0, r0, #4, #12
	.loc	1 161 3                         @ main_s.c:161:3
	cmp	r0, r1
	it	eq
	moveq	r3, r2
	adr	r2, .LCPI6_14
	cmp.w	r0, #3360
	it	ne
	movne	r2, r3
.Ltmp62:
	.loc	1 0 0                           @ main_s.c:0:0
	movs	r0, #0
	movs	r1, #96
	blx	r6
.Ltmp63:
	.loc	1 173 18 is_stmt 1              @ main_s.c:173:18
	ldr	r0, __arm_cp.6_15
	movs	r1, #100
	ldr	r0, [r0]
	.loc	1 173 34 is_stmt 0              @ main_s.c:173:34
	udiv	r0, r0, r1
.Ltmp64:
	@DEBUG_VALUE: SysTick_Config:ticks <- $r0
	.loc	4 3142 14 is_stmt 1             @ C:/Users/philo/AppData/Local/Arm/Packs/ARM/CMSIS/5.9.0/CMSIS/Core/Include\core_cm33.h:3142:14
	subs	r0, #1
.Ltmp65:
	.loc	4 3142 7 is_stmt 0              @ C:/Users/philo/AppData/Local/Arm/Packs/ARM/CMSIS/5.9.0/CMSIS/Core/Include\core_cm33.h:3142:7
	cmp.w	r5, r0, lsr #24
	bne	.LBB6_2
.Ltmp66:
@ %bb.1:
	@DEBUG_VALUE: main:NonSecure_ResetHandler <- $r4
	.loc	4 3147 18 is_stmt 1             @ C:/Users/philo/AppData/Local/Arm/Packs/ARM/CMSIS/5.9.0/CMSIS/Core/Include\core_cm33.h:3147:18
	str	r0, [r7, #4]
	ldr	r0, __arm_cp.6_16
	movs	r1, #224
.Ltmp67:
	@DEBUG_VALUE: __NVIC_SetPriority:priority <- 7
	@DEBUG_VALUE: __NVIC_SetPriority:IRQn <- -1
	.loc	4 2595 47                       @ C:/Users/philo/AppData/Local/Arm/Packs/ARM/CMSIS/5.9.0/CMSIS/Core/Include\core_cm33.h:2595:47
	strb	r1, [r0]
	movs	r0, #7
.Ltmp68:
	.loc	4 3149 18                       @ C:/Users/philo/AppData/Local/Arm/Packs/ARM/CMSIS/5.9.0/CMSIS/Core/Include\core_cm33.h:3149:18
	str	r5, [r7, #8]
	.loc	4 3150 18                       @ C:/Users/philo/AppData/Local/Arm/Packs/ARM/CMSIS/5.9.0/CMSIS/Core/Include\core_cm33.h:3150:18
	str	r0, [r7]
.Ltmp69:
.LBB6_2:
	@DEBUG_VALUE: main:NonSecure_ResetHandler <- $r4
	@DEBUG_VALUE: main:NonSecure_ResetHandler <- $r4
	.loc	1 175 3                         @ main_s.c:175:3
	push.w	{r4, r5, r6, r7, r8, r9, r10, r11}
	bic	r4, r4, #1
.Ltmp70:
	sub	sp, #136
	vlstm	sp
	mov	r0, r4
	mov	r1, r4
	mov	r2, r4
	mov	r3, r4
	mov	r5, r4
	mov	r6, r4
	mov	r7, r4
	mov	r8, r4
	mov	r9, r4
	mov	r10, r4
	mov	r11, r4
	mov	r12, r4
	msr	apsr_nzcvqg, r4
	blxns	r4
.Ltmp71:
	vlldm	sp
	add	sp, #136
	pop.w	{r4, r5, r6, r7, r8, r9, r10, r11}
	.loc	1 176 1                         @ main_s.c:176:1
	mov.w	r0, #0
	add	sp, #20
	pop	{r4, r5, r6, r7, pc}
.Ltmp72:
	.p2align	2
@ %bb.3:
	.loc	1 0 1 is_stmt 0                 @ main_s.c:0:1
__arm_cp.6_0:
	.long	2097156                         @ 0x200004
.Lcpi_end6:
	.size	__arm_cp.6_0, .Lcpi_end6-__arm_cp.6_0
__arm_cp.6_1:
	.long	3758157632                      @ 0xe000ef40
.Lcpi_end7:
	.size	__arm_cp.6_1, .Lcpi_end7-__arm_cp.6_1
__arm_cp.6_2:
	.long	1095192229                      @ 0x41474ea5
.Lcpi_end8:
	.size	__arm_cp.6_2, .Lcpi_end8-__arm_cp.6_2
__arm_cp.6_3:
	.long	1059712661                      @ 0x3f29ee95
.Lcpi_end9:
	.size	__arm_cp.6_3, .Lcpi_end9-__arm_cp.6_3
__arm_cp.6_4:
	.long	1103160207                      @ 0x41c0e38f
.Lcpi_end10:
	.size	__arm_cp.6_4, .Lcpi_end10-__arm_cp.6_4
__arm_cp.6_5:
	.long	GLCD_Font_16x24
.Lcpi_end11:
	.size	__arm_cp.6_5, .Lcpi_end11-__arm_cp.6_5
__arm_cp.6_6:
	.long	GLCD_SetBackgroundColor
.Lcpi_end12:
	.size	__arm_cp.6_6, .Lcpi_end12-__arm_cp.6_6
.LCPI6_7:
.L.str.1:
	.asciz	"   V2M-MPS2+ Demo   \000\000\000"
__arm_cp.6_8:
	.long	GLCD_DrawString
.Lcpi_end13:
	.size	__arm_cp.6_8, .Lcpi_end13-__arm_cp.6_8
.LCPI6_9:
.L.str.2:
	.asciz	" Secure/Non-Secure  \000\000\000"
.LCPI6_10:
.L.str.3:
	.asciz	"   www.keil.com     \000\000\000"
__arm_cp.6_11:
	.long	3758153744                      @ 0xe000e010
.Lcpi_end14:
	.size	__arm_cp.6_11, .Lcpi_end14-__arm_cp.6_11
.LCPI6_12:
.L.str.5:
	.asciz	"  Cortex-M33        \000\000\000"
.LCPI6_13:
.L.str.6:
	.asciz	"  unknown Cortex-M  \000\000\000"
.LCPI6_14:
.L.str.4:
	.asciz	"  Cortex-M23        \000\000\000"
__arm_cp.6_15:
	.long	SystemCoreClock
.Lcpi_end15:
	.size	__arm_cp.6_15, .Lcpi_end15-__arm_cp.6_15
__arm_cp.6_16:
	.long	3758157091                      @ 0xe000ed23
.Lcpi_end16:
	.size	__arm_cp.6_16, .Lcpi_end16-__arm_cp.6_16
.Lfunc_end6:
	.size	main, .Lfunc_end6-main
	.cfi_endproc
	.cantunwind
	.fnend
                                        @ -- End function
	.hidden	text                            @ @text
	.type	text,%object
	.section	.data.text,"aw",%progbits
	.globl	text
text:
	.asciz	"Hello World (secure)\r\n"
	.size	text, 23

	.type	.L.str,%object                  @ @.str
	.section	.rodata.str1.1,"aMS",%progbits,1
.L.str:
	.asciz	"%s"
	.size	.L.str, 3

	.type	__ARM_use_no_argv,%object       @ @__ARM_use_no_argv
	.section	.ARM.use_no_argv,"aw",%progbits
	.globl	__ARM_use_no_argv
	.p2align	2
__ARM_use_no_argv:
	.long	1                               @ 0x1
	.size	__ARM_use_no_argv, 4

	.globl	_printf_percent
	.globl	_printf_s
	.globl	_printf_str
	.globl	__ARM_use_no_argv
	.type	.L_MergedGlobals,%object        @ @_MergedGlobals
	.section	.bss..L_MergedGlobals,"aw",%nobits
	.p2align	2
.L_MergedGlobals:
	.zero	16
	.size	.L_MergedGlobals, 16

	.hidden	_printf_percent
	.hidden	_printf_s
	.hidden	_printf_str
	.section	".note.GNU-stack","",%progbits
	.eabi_attribute	30, 4	@ Tag_ABI_optimization_goals
	.ARM_attribute	16, 1	@ Tag_AV_eba