	.text
	.syntax unified
	.eabi_attribute	67, "2.09"	@ Tag_conformance
	.cpu	cortex-m33
	.eabi_attribute	6, 17	@ Tag_CPU_arch
	.eabi_attribute	7, 77	@ Tag_CPU_arch_profile
	.eabi_attribute	8, 0	@ Tag_ARM_ISA_use
	.eabi_attribute	9, 3	@ Tag_THUMB_ISA_use
	.fpu	fpv5-sp-d16
	.eabi_attribute	27, 1	@ Tag_ABI_HardFP_use
	.eabi_attribute	36, 1	@ Tag_FP_HP_extension
	.eabi_attribute	46, 1	@ Tag_DSP_extension
	.eabi_attribute	34, 1	@ Tag_CPU_unaligned_access
	.eabi_attribute	17, 1	@ Tag_ABI_PCS_GOT_use
	.eabi_attribute	20, 2	@ Tag_ABI_FP_denormal
	.eabi_attribute	21, 0	@ Tag_ABI_FP_exceptions
	.eabi_attribute	23, 1	@ Tag_ABI_FP_number_model
	.eabi_attribute	24, 1	@ Tag_ABI_align_needed
	.eabi_attribute	25, 1	@ Tag_ABI_align_preserved
	.eabi_attribute	28, 1	@ Tag_ABI_VFP_args
	.eabi_attribute	38, 1	@ Tag_ABI_FP_16bit_format
	.eabi_attribute	18, 2	@ Tag_ABI_PCS_wchar_t
	.eabi_attribute	26, 1	@ Tag_ABI_enum_size
	.eabi_attribute	14, 0	@ Tag_ABI_PCS_R9_use
	.file	"retarget_io.c"
	.file	1 "C:/Users/philo/AppData/Local/Arm/Packs/Keil/ARM_Compiler/1.7.2/Source" "retarget_io.c"
	.section	.text._sys_open,"ax",%progbits
	.hidden	_sys_open                       @ -- Begin function _sys_open
	.weak	_sys_open
	.p2align	2
	.type	_sys_open,%function
	.code	16                              @ @_sys_open
	.thumb_func
_sys_open:
.Lfunc_begin0:
	.loc	1 413 0                         @ C:/Users/philo/AppData/Local/Arm/Packs/Keil/ARM_Compiler/1.7.2/Source/retarget_io.c:413:0
	.fnstart
	.cfi_sections .debug_frame
	.cfi_startproc
@ %bb.0:
	@DEBUG_VALUE: _sys_open:name <- $r0
	@DEBUG_VALUE: _sys_open:openmode <- $r1
	@DEBUG_VALUE: _sys_open:name <- $r0
	.save	{r4, lr}
	push	{r4, lr}
	.cfi_def_cfa_offset 8
	.cfi_offset lr, -4
	.cfi_offset r4, -8
.Ltmp0:
	.loc	1 418 7 prologue_end            @ C:/Users/philo/AppData/Local/Arm/Packs/Keil/ARM_Compiler/1.7.2/Source/retarget_io.c:418:7
	cbz	r0, .LBB0_5
.Ltmp1:
@ %bb.1:
	@DEBUG_VALUE: _sys_open:openmode <- $r1
	@DEBUG_VALUE: _sys_open:name <- $r0
	.loc	1 0 7 is_stmt 0                 @ C:/Users/philo/AppData/Local/Arm/Packs/Keil/ARM_Compiler/1.7.2/Source/retarget_io.c:0:7
	mov	r4, r0
.Ltmp2:
	@DEBUG_VALUE: _sys_open:name <- $r4
	.loc	1 422 7 is_stmt 1               @ C:/Users/philo/AppData/Local/Arm/Packs/Keil/ARM_Compiler/1.7.2/Source/retarget_io.c:422:7
	ldrb	r0, [r0]
.Ltmp3:
	.loc	1 422 7 is_stmt 0               @ C:/Users/philo/AppData/Local/Arm/Packs/Keil/ARM_Compiler/1.7.2/Source/retarget_io.c:422:7
	cmp	r0, #58
	bne	.LBB0_5
.Ltmp4:
@ %bb.2:
	@DEBUG_VALUE: _sys_open:name <- $r4
	@DEBUG_VALUE: _sys_open:openmode <- $r1
	.loc	1 423 9 is_stmt 1               @ C:/Users/philo/AppData/Local/Arm/Packs/Keil/ARM_Compiler/1.7.2/Source/retarget_io.c:423:9
	ldr	r1, __arm_cp.0_0
.Ltmp5:
	@DEBUG_VALUE: _sys_open:openmode <- [DW_OP_LLVM_entry_value 1] $r1
	mov	r0, r4
	bl	strcmp
.Ltmp6:
	.loc	1 423 9 is_stmt 0               @ C:/Users/philo/AppData/Local/Arm/Packs/Keil/ARM_Compiler/1.7.2/Source/retarget_io.c:423:9
	cbz	r0, .LBB0_6
.Ltmp7:
@ %bb.3:
	@DEBUG_VALUE: _sys_open:name <- $r4
	@DEBUG_VALUE: _sys_open:openmode <- [DW_OP_LLVM_entry_value 1] $r1
	.loc	1 426 9 is_stmt 1               @ C:/Users/philo/AppData/Local/Arm/Packs/Keil/ARM_Compiler/1.7.2/Source/retarget_io.c:426:9
	ldr	r1, __arm_cp.0_1
	mov	r0, r4
	bl	strcmp
.Ltmp8:
	.loc	1 426 9 is_stmt 0               @ C:/Users/philo/AppData/Local/Arm/Packs/Keil/ARM_Compiler/1.7.2/Source/retarget_io.c:426:9
	cbz	r0, .LBB0_7
.Ltmp9:
@ %bb.4:
	@DEBUG_VALUE: _sys_open:name <- $r4
	@DEBUG_VALUE: _sys_open:openmode <- [DW_OP_LLVM_entry_value 1] $r1
	.loc	1 429 9 is_stmt 1               @ C:/Users/philo/AppData/Local/Arm/Packs/Keil/ARM_Compiler/1.7.2/Source/retarget_io.c:429:9
	ldr	r1, __arm_cp.0_2
	mov	r0, r4
	bl	strcmp
.Ltmp10:
	.loc	1 0 9 is_stmt 0                 @ C:/Users/philo/AppData/Local/Arm/Packs/Keil/ARM_Compiler/1.7.2/Source/retarget_io.c:0:9
	mov.w	r1, #-1
.Ltmp11:
	.loc	1 429 9                         @ C:/Users/philo/AppData/Local/Arm/Packs/Keil/ARM_Compiler/1.7.2/Source/retarget_io.c:429:9
	cmp	r0, #0
	it	eq
	movweq	r1, #32771
	mov	r0, r1
.Ltmp12:
	.loc	1 0 0                           @ C:/Users/philo/AppData/Local/Arm/Packs/Keil/ARM_Compiler/1.7.2/Source/retarget_io.c:0:0
	pop	{r4, pc}
.Ltmp13:
.LBB0_5:
	@DEBUG_VALUE: _sys_open:openmode <- $r1
	mov.w	r0, #-1
	pop	{r4, pc}
.Ltmp14:
.LBB0_6:
	@DEBUG_VALUE: _sys_open:name <- $r4
	@DEBUG_VALUE: _sys_open:openmode <- [DW_OP_LLVM_entry_value 1] $r1
	movw	r0, #32769
	pop	{r4, pc}
.Ltmp15:
.LBB0_7:
	@DEBUG_VALUE: _sys_open:name <- $r4
	@DEBUG_VALUE: _sys_open:openmode <- [DW_OP_LLVM_entry_value 1] $r1
	movw	r0, #32770
	pop	{r4, pc}
.Ltmp16:
	.p2align	2
@ %bb.8:
__arm_cp.0_0:
	.long	__stdin_name
.Lcpi_end0:
	.size	__arm_cp.0_0, .Lcpi_end0-__arm_cp.0_0
__arm_cp.0_1:
	.long	__stdout_name
.Lcpi_end1:
	.size	__arm_cp.0_1, .Lcpi_end1-__arm_cp.0_1
__arm_cp.0_2:
	.long	__stderr_name
.Lcpi_end2:
	.size	__arm_cp.0_2, .Lcpi_end2-__arm_cp.0_2
.Lfunc_end0:
	.size	_sys_open, .Lfunc_end0-_sys_open
	.cfi_endproc
	.cantunwind
	.fnend
                                        @ -- End function
	.section	.text._sys_close,"ax",%progbits
	.hidden	_sys_close                      @ -- Begin function _sys_close
	.weak	_sys_close
	.p2align	1
	.type	_sys_close,%function
	.code	16                              @ @_sys_close
	.thumb_func
_sys_close:
.Lfunc_begin1:
	.loc	1 459 0 is_stmt 1               @ C:/Users/philo/AppData/Local/Arm/Packs/Keil/ARM_Compiler/1.7.2/Source/retarget_io.c:459:0
	.fnstart
	.cfi_startproc
@ %bb.0:
	@DEBUG_VALUE: _sys_close:fh <- $r0
	@DEBUG_VALUE: _sys_close:fh <- $r0
	.loc	1 461 3 prologue_end            @ C:/Users/philo/AppData/Local/Arm/Packs/Keil/ARM_Compiler/1.7.2/Source/retarget_io.c:461:3
	movw	r1, #32769
	subs	r1, r0, r1
	movs	r0, #0
.Ltmp17:
	@DEBUG_VALUE: _sys_close:fh <- [DW_OP_LLVM_entry_value 1] $r0
	cmp	r1, #2
	it	hi
	movhi.w	r0, #-1
	.loc	1 477 1                         @ C:/Users/philo/AppData/Local/Arm/Packs/Keil/ARM_Compiler/1.7.2/Source/retarget_io.c:477:1
	bx	lr
.Ltmp18:
.Lfunc_end1:
	.size	_sys_close, .Lfunc_end1-_sys_close
	.cfi_endproc
	.cantunwind
	.fnend
                                        @ -- End function
	.section	.text._sys_write,"ax",%progbits
	.hidden	_sys_write                      @ -- Begin function _sys_write
	.weak	_sys_write
	.p2align	1
	.type	_sys_write,%function
	.code	16                              @ @_sys_write
	.thumb_func
_sys_write:
.Lfunc_begin2:
	.loc	1 501 0                         @ C:/Users/philo/AppData/Local/Arm/Packs/Keil/ARM_Compiler/1.7.2/Source/retarget_io.c:501:0
	.fnstart
	.cfi_startproc
@ %bb.0:
	@DEBUG_VALUE: _sys_write:fh <- $r0
	@DEBUG_VALUE: _sys_write:buf <- $r1
	@DEBUG_VALUE: _sys_write:len <- $r2
	@DEBUG_VALUE: _sys_write:mode <- $r3
	.save	{r4, r5, r7, lr}
	push	{r4, r5, r7, lr}
	.cfi_def_cfa_offset 16
	.cfi_offset lr, -4
	.cfi_offset r7, -8
	.cfi_offset r5, -12
	.cfi_offset r4, -16
	mov	r5, r1
.Ltmp19:
	@DEBUG_VALUE: _sys_write:buf <- $r5
	movw	r1, #32771
	@DEBUG_VALUE: _sys_write:len <- $r2
	@DEBUG_VALUE: _sys_write:buf <- $r5
	@DEBUG_VALUE: _sys_write:fh <- $r0
.Ltmp20:
	.loc	1 510 3 prologue_end            @ C:/Users/philo/AppData/Local/Arm/Packs/Keil/ARM_Compiler/1.7.2/Source/retarget_io.c:510:3
	cmp	r0, r1
	beq	.LBB2_5
.Ltmp21:
@ %bb.1:
	@DEBUG_VALUE: _sys_write:buf <- $r5
	@DEBUG_VALUE: _sys_write:mode <- $r3
	@DEBUG_VALUE: _sys_write:len <- $r2
	@DEBUG_VALUE: _sys_write:fh <- $r0
	@DEBUG_VALUE: _sys_write:len <- $r2
	.loc	1 0 3 is_stmt 0                 @ C:/Users/philo/AppData/Local/Arm/Packs/Keil/ARM_Compiler/1.7.2/Source/retarget_io.c:0:3
	movw	r1, #32770
	.loc	1 510 3                         @ C:/Users/philo/AppData/Local/Arm/Packs/Keil/ARM_Compiler/1.7.2/Source/retarget_io.c:510:3
	cmp	r0, r1
	itt	ne
	movne.w	r0, #-1
.Ltmp22:
	@DEBUG_VALUE: _sys_write:fh <- [DW_OP_LLVM_entry_value 1] $r0
	.loc	1 544 1 is_stmt 1               @ C:/Users/philo/AppData/Local/Arm/Packs/Keil/ARM_Compiler/1.7.2/Source/retarget_io.c:544:1
	popne	{r4, r5, r7, pc}
.Ltmp23:
.LBB2_2:
	@DEBUG_VALUE: _sys_write:mode <- $r3
	@DEBUG_VALUE: _sys_write:len <- $r2
	@DEBUG_VALUE: _sys_write:fh <- [DW_OP_LLVM_entry_value 1] $r0
	.loc	1 0 1 is_stmt 0                 @ C:/Users/philo/AppData/Local/Arm/Packs/Keil/ARM_Compiler/1.7.2/Source/retarget_io.c:0:1
	mov	r4, r2
.Ltmp24:
	@DEBUG_VALUE: _sys_write:len <- $r4
	@DEBUG_VALUE: _sys_write:len <- $r4
.LBB2_3:                                @ =>This Inner Loop Header: Depth=1
	@DEBUG_VALUE: _sys_write:len <- $r4
	@DEBUG_VALUE: _sys_write:fh <- [DW_OP_LLVM_entry_value 1] $r0
	@DEBUG_VALUE: _sys_write:buf <- $r5
	@DEBUG_VALUE: _sys_write:len <- $r4
	.loc	1 515 7 is_stmt 1               @ C:/Users/philo/AppData/Local/Arm/Packs/Keil/ARM_Compiler/1.7.2/Source/retarget_io.c:515:7
	cbz	r4, .LBB2_5
.Ltmp25:
@ %bb.4:                                @   in Loop: Header=BB2_3 Depth=1
	@DEBUG_VALUE: _sys_write:buf <- $r5
	@DEBUG_VALUE: _sys_write:len <- $r4
	@DEBUG_VALUE: _sys_write:fh <- [DW_OP_LLVM_entry_value 1] $r0
	.loc	1 516 14                        @ C:/Users/philo/AppData/Local/Arm/Packs/Keil/ARM_Compiler/1.7.2/Source/retarget_io.c:516:14
	ldrb	r0, [r5], #1
.Ltmp26:
	@DEBUG_VALUE: _sys_write:ch <- $r0
	@DEBUG_VALUE: _sys_write:buf <- $r5
	.loc	1 520 9                         @ C:/Users/philo/AppData/Local/Arm/Packs/Keil/ARM_Compiler/1.7.2/Source/retarget_io.c:520:9
	bl	stdout_putchar
.Ltmp27:
	@DEBUG_VALUE: _sys_write:mode <- [DW_OP_LLVM_entry_value 1] $r3
	.loc	1 515 22                        @ C:/Users/philo/AppData/Local/Arm/Packs/Keil/ARM_Compiler/1.7.2/Source/retarget_io.c:515:22
	subs	r4, #1
.Ltmp28:
	@DEBUG_VALUE: _sys_write:len <- $r4
	.loc	1 0 22 is_stmt 0                @ C:/Users/philo/AppData/Local/Arm/Packs/Keil/ARM_Compiler/1.7.2/Source/retarget_io.c:0:22
	b	.LBB2_3
.Ltmp29:
.LBB2_5:
	@DEBUG_VALUE: _sys_write:buf <- $r5
	movs	r0, #0
	.loc	1 544 1 is_stmt 1               @ C:/Users/philo/AppData/Local/Arm/Packs/Keil/ARM_Compiler/1.7.2/Source/retarget_io.c:544:1
	pop	{r4, r5, r7, pc}
.Ltmp30:
.Lfunc_end2:
	.size	_sys_write, .Lfunc_end2-_sys_write
	.cfi_endproc
	.cantunwind
	.fnend
                                        @ -- End function
	.section	.text._sys_read,"ax",%progbits
	.hidden	_sys_read                       @ -- Begin function _sys_read
	.weak	_sys_read
	.p2align	1
	.type	_sys_read,%function
	.code	16                              @ @_sys_read
	.thumb_func
_sys_read:
.Lfunc_begin3:
	.loc	1 577 0                         @ C:/Users/philo/AppData/Local/Arm/Packs/Keil/ARM_Compiler/1.7.2/Source/retarget_io.c:577:0
	.fnstart
	.cfi_startproc
@ %bb.0:
	@DEBUG_VALUE: _sys_read:fh <- $r0
	@DEBUG_VALUE: _sys_read:buf <- $r1
	@DEBUG_VALUE: _sys_read:len <- $r2
	@DEBUG_VALUE: _sys_read:mode <- $r3
	movw	r3, #32769
.Ltmp31:
	@DEBUG_VALUE: _sys_read:mode <- [DW_OP_LLVM_entry_value 1] $r3
	mov.w	r1, #-1
.Ltmp32:
	@DEBUG_VALUE: _sys_read:buf <- [DW_OP_LLVM_entry_value 1] $r1
	@DEBUG_VALUE: _sys_read:len <- $r2
	@DEBUG_VALUE: _sys_read:fh <- $r0
	.loc	1 586 3 prologue_end            @ C:/Users/philo/AppData/Local/Arm/Packs/Keil/ARM_Compiler/1.7.2/Source/retarget_io.c:586:3
	cmp	r0, r3
	it	eq
	orreq	r1, r2, #-2147483648
	.loc	1 615 1                         @ C:/Users/philo/AppData/Local/Arm/Packs/Keil/ARM_Compiler/1.7.2/Source/retarget_io.c:615:1
	mov	r0, r1
.Ltmp33:
	@DEBUG_VALUE: _sys_read:fh <- [DW_OP_LLVM_entry_value 1] $r0
	bx	lr
.Ltmp34:
.Lfunc_end3:
	.size	_sys_read, .Lfunc_end3-_sys_read
	.cfi_endproc
	.cantunwind
	.fnend
                                        @ -- End function
	.section	.text._sys_istty,"ax",%progbits
	.hidden	_sys_istty                      @ -- Begin function _sys_istty
	.weak	_sys_istty
	.p2align	1
	.type	_sys_istty,%function
	.code	16                              @ @_sys_istty
	.thumb_func
_sys_istty:
.Lfunc_begin4:
	.loc	1 670 0                         @ C:/Users/philo/AppData/Local/Arm/Packs/Keil/ARM_Compiler/1.7.2/Source/retarget_io.c:670:0
	.fnstart
	.cfi_startproc
@ %bb.0:
	@DEBUG_VALUE: _sys_istty:fh <- $r0
	@DEBUG_VALUE: _sys_istty:fh <- $r0
	.loc	1 672 3 prologue_end            @ C:/Users/philo/AppData/Local/Arm/Packs/Keil/ARM_Compiler/1.7.2/Source/retarget_io.c:672:3
	movw	r1, #32769
	subs	r1, r0, r1
	movs	r0, #0
.Ltmp35:
	@DEBUG_VALUE: _sys_istty:fh <- [DW_OP_LLVM_entry_value 1] $r0
	cmp	r1, #3
	it	lo
	movlo	r0, #1
	.loc	1 682 1                         @ C:/Users/philo/AppData/Local/Arm/Packs/Keil/ARM_Compiler/1.7.2/Source/retarget_io.c:682:1
	bx	lr
.Ltmp36:
.Lfunc_end4:
	.size	_sys_istty, .Lfunc_end4-_sys_istty
	.cfi_endproc
	.cantunwind
	.fnend
                                        @ -- End function
	.section	.text._sys_seek,"ax",%progbits
	.hidden	_sys_seek                       @ -- Begin function _sys_seek
	.weak	_sys_seek
	.p2align	1
	.type	_sys_seek,%function
	.code	16                              @ @_sys_seek
	.thumb_func
_sys_seek:
.Lfunc_begin5:
	.loc	1 702 0                         @ C:/Users/philo/AppData/Local/Arm/Packs/Keil/ARM_Compiler/1.7.2/Source/retarget_io.c:702:0
	.fnstart
	.cfi_startproc
@ %bb.0:
	@DEBUG_VALUE: _sys_seek:fh <- $r0
	@DEBUG_VALUE: _sys_seek:pos <- $r1
	.loc	1 723 1 prologue_end            @ C:/Users/philo/AppData/Local/Arm/Packs/Keil/ARM_Compiler/1.7.2/Source/retarget_io.c:723:1
	mov.w	r0, #-1
.Ltmp37:
	@DEBUG_VALUE: _sys_seek:fh <- [DW_OP_LLVM_entry_value 1] $r0
	bx	lr
.Ltmp38:
.Lfunc_end5:
	.size	_sys_seek, .Lfunc_end5-_sys_seek
	.cfi_endproc
	.cantunwind
	.fnend
                                        @ -- End function
	.section	.text._sys_flen,"ax",%progbits
	.hidden	_sys_flen                       @ -- Begin function _sys_flen
	.weak	_sys_flen
	.p2align	1
	.type	_sys_flen,%function
	.code	16                              @ @_sys_flen
	.thumb_func
_sys_flen:
.Lfunc_begin6:
	.loc	1 744 0                         @ C:/Users/philo/AppData/Local/Arm/Packs/Keil/ARM_Compiler/1.7.2/Source/retarget_io.c:744:0
	.fnstart
	.cfi_startproc
@ %bb.0:
	@DEBUG_VALUE: _sys_flen:fh <- $r0
	.loc	1 762 1 prologue_end            @ C:/Users/philo/AppData/Local/Arm/Packs/Keil/ARM_Compiler/1.7.2/Source/retarget_io.c:762:1
	movs	r0, #0
.Ltmp39:
	@DEBUG_VALUE: _sys_flen:fh <- [DW_OP_LLVM_entry_value 1] $r0
	bx	lr
.Ltmp40:
.Lfunc_end6:
	.size	_sys_flen, .Lfunc_end6-_sys_flen
	.cfi_endproc
	.cantunwind
	.fnend
                                        @ -- End function
	.hidden	__stdin_name                    @ @__stdin_name
	.type	__stdin_name,%object
	.section	.rodata.__stdin_name,"a",%progbits
	.globl	__stdin_name
__stdin_name:
	.asciz	":STDIN"
	.size	__stdin_name, 7

	.hidden	__stdout_name                   @ @__stdout_name
	.type	__stdout_name,%object
	.section	.rodata.__stdout_name,"a",%progbits
	.globl	__stdout_name
__stdout_name:
	.asciz	":STDOUT"
	.size	__stdout_name, 8

	.hidden	__stderr_name                   @ @__stderr_name
	.type	__stderr_name,%object
	.section	.rodata.__stderr_name,"a",%progbits
	.globl	__stderr_name
__stderr_name:
	.asciz	":STDERR"
	.size	__stderr_name, 8

	.file	2 "C:\\" "Keil_v5\\ARM\\ARMCLANG\\Bin\\..\\include\\rt_sys.h"
	.file	3 "C:\\" "Keil_v5\\ARM\\ARMCLANG\\Bin\\..\\include\\stdint.h"
	.section	".note.GNU-stack","",%progbits
	.eabi_attribute	30, 4	@ Tag_ABI_optimization_goals
	.ARM_attribute	16, 1	@ Tag_AV_eba