	.text
	.syntax unified
	.eabi_attribute	67, "2.09"	@ Tag_conformance
	.cpu	cortex-m33
	.eabi_attribute	6, 17	@ Tag_CPU_arch
	.eabi_attribute	7, 77	@ Tag_CPU_arch_profile
	.eabi_attribute	8, 0	@ Tag_ARM_ISA_use
	.eabi_attribute	9, 3	@ Tag_THUMB_ISA_use
	.fpu	fpv5-sp-d16
	.eabi_attribute	27, 1	@ Tag_ABI_HardFP_use
	.eabi_attribute	36, 1	@ Tag_FP_HP_extension
	.eabi_attribute	46, 1	@ Tag_DSP_extension
	.eabi_attribute	34, 1	@ Tag_CPU_unaligned_access
	.eabi_attribute	17, 1	@ Tag_ABI_PCS_GOT_use
	.eabi_attribute	20, 2	@ Tag_ABI_FP_denormal
	.eabi_attribute	21, 0	@ Tag_ABI_FP_exceptions
	.eabi_attribute	23, 1	@ Tag_ABI_FP_number_model
	.eabi_attribute	24, 1	@ Tag_ABI_align_needed
	.eabi_attribute	25, 1	@ Tag_ABI_align_preserved
	.eabi_attribute	28, 1	@ Tag_ABI_VFP_args
	.eabi_attribute	38, 1	@ Tag_ABI_FP_16bit_format
	.eabi_attribute	18, 2	@ Tag_ABI_PCS_wchar_t
	.eabi_attribute	26, 1	@ Tag_ABI_enum_size
	.eabi_attribute	14, 0	@ Tag_ABI_PCS_R9_use
	.file	"stdout_USART.c"
	.file	1 "C:/Users/philo/AppData/Local/Arm/Packs/ARM/CMSIS/5.9.0/CMSIS/Driver/Include" "Driver_Common.h"
	.file	2 "C:\\" "Keil_v5\\ARM\\ARMCLANG\\Bin\\..\\include\\stdint.h"
	.section	.text.stdout_init,"ax",%progbits
	.hidden	stdout_init                     @ -- Begin function stdout_init
	.globl	stdout_init
	.p2align	2
	.type	stdout_init,%function
	.code	16                              @ @stdout_init
	.thumb_func
stdout_init:
.Lfunc_begin0:
	.file	3 "C:\\Users\\philo\\Documents\\GitHub\\code-CortexM-ret2user\\blinky_tz\\Boards\\ARM\\V2M-MPS2\\IOTKit_CM33\\IOTKit_CM33_S_NS\\IOTKit_CM33_s" "stdout_USART.c"
	.loc	3 63 0                          @ stdout_USART.c:63:0
	.fnstart
	.cfi_sections .debug_frame
	.cfi_startproc
@ %bb.0:
	.save	{r4, lr}
	push	{r4, lr}
	.cfi_def_cfa_offset 8
	.cfi_offset lr, -4
	.cfi_offset r4, -8
.Ltmp0:
	.loc	3 66 22 prologue_end            @ stdout_USART.c:66:22
	ldr	r4, __arm_cp.0_0
	.loc	3 66 12 is_stmt 0               @ stdout_USART.c:66:12
	movs	r0, #0
	.loc	3 66 22                         @ stdout_USART.c:66:22
	ldr	r1, [r4, #8]
	.loc	3 66 12                         @ stdout_USART.c:66:12
	blx	r1
.Ltmp1:
	@DEBUG_VALUE: stdout_init:status <- $r0
	.loc	3 67 7 is_stmt 1                @ stdout_USART.c:67:7
	cbnz	r0, .LBB0_3
.Ltmp2:
@ %bb.1:
	@DEBUG_VALUE: stdout_init:status <- $r0
	.loc	3 69 22                         @ stdout_USART.c:69:22
	ldr	r1, [r4, #16]
	.loc	3 69 12 is_stmt 0               @ stdout_USART.c:69:12
	movs	r0, #2
.Ltmp3:
	blx	r1
.Ltmp4:
	@DEBUG_VALUE: stdout_init:status <- $r0
	.loc	3 70 7 is_stmt 1                @ stdout_USART.c:70:7
	cbnz	r0, .LBB0_3
.Ltmp5:
@ %bb.2:
	@DEBUG_VALUE: stdout_init:status <- $r0
	.loc	3 72 22                         @ stdout_USART.c:72:22
	ldr	r4, [r4, #40]
	.loc	3 72 12 is_stmt 0               @ stdout_USART.c:72:12
	movs	r0, #1
.Ltmp6:
	mov.w	r1, #115200
	blx	r4
.Ltmp7:
	@DEBUG_VALUE: stdout_init:status <- $r0
	.loc	3 78 7 is_stmt 1                @ stdout_USART.c:78:7
	cbz	r0, .LBB0_4
.Ltmp8:
.LBB0_3:
	@DEBUG_VALUE: stdout_init:status <- $r0
	.loc	3 84 1                          @ stdout_USART.c:84:1
	mov.w	r0, #-1
.Ltmp9:
	pop	{r4, pc}
.LBB0_4:
.Ltmp10:
	@DEBUG_VALUE: stdout_init:status <- $r0
	.loc	3 80 12                         @ stdout_USART.c:80:12
	movs	r0, #21
.Ltmp11:
	movs	r1, #1
	blx	r4
.Ltmp12:
	@DEBUG_VALUE: stdout_init:status <- $r0
	.loc	3 81 7                          @ stdout_USART.c:81:7
	cmp	r0, #0
	it	ne
	movne.w	r0, #-1
.Ltmp13:
	pop	{r4, pc}
.Ltmp14:
	.p2align	2
@ %bb.5:
	.loc	3 0 7 is_stmt 0                 @ stdout_USART.c:0:7
__arm_cp.0_0:
	.long	Driver_USART0
.Lcpi_end0:
	.size	__arm_cp.0_0, .Lcpi_end0-__arm_cp.0_0
.Lfunc_end0:
	.size	stdout_init, .Lfunc_end0-stdout_init
	.cfi_endproc
	.cantunwind
	.fnend
                                        @ -- End function
	.section	.text.stdout_putchar,"ax",%progbits
	.hidden	stdout_putchar                  @ -- Begin function stdout_putchar
	.globl	stdout_putchar
	.p2align	2
	.type	stdout_putchar,%function
	.code	16                              @ @stdout_putchar
	.thumb_func
stdout_putchar:
.Lfunc_begin1:
	.loc	3 94 0 is_stmt 1                @ stdout_USART.c:94:0
	.fnstart
	.cfi_startproc
@ %bb.0:
	@DEBUG_VALUE: stdout_putchar:ch <- $r0
	.save	{r4, r5, r7, lr}
	.pad	#8
	push	{r2, r3, r4, r5, r7, lr}
	.cfi_def_cfa_offset 24
	.cfi_offset lr, -4
	.cfi_offset r7, -8
	.cfi_offset r5, -12
	.cfi_offset r4, -16
.Ltmp15:
	.loc	3 98 17 prologue_end            @ stdout_USART.c:98:17
	ldr	r5, __arm_cp.1_0
	mov	r4, r0
.Ltmp16:
	@DEBUG_VALUE: stdout_putchar:ch <- $r4
	.loc	3 97 10                         @ stdout_USART.c:97:10
	strb.w	r0, [sp, #7]
	add.w	r0, sp, #7
.Ltmp17:
	.loc	3 98 7                          @ stdout_USART.c:98:7
	movs	r1, #1
	.loc	3 98 17 is_stmt 0               @ stdout_USART.c:98:17
	ldr	r2, [r5, #20]
	.loc	3 98 7                          @ stdout_USART.c:98:7
	blx	r2
.Ltmp18:
	.loc	3 98 7                          @ stdout_USART.c:98:7
	cbz	r0, .LBB1_2
.Ltmp19:
@ %bb.1:
	@DEBUG_VALUE: stdout_putchar:ch <- $r4
	.loc	3 0 7                           @ stdout_USART.c:0:7
	mov.w	r4, #-1
.Ltmp20:
	@DEBUG_VALUE: stdout_putchar:ch <- [DW_OP_LLVM_entry_value 1] $r0
	b	.LBB1_4
.Ltmp21:
.LBB1_2:
	@DEBUG_VALUE: stdout_putchar:ch <- $r4
	ldr	r5, [r5, #32]
.Ltmp22:
.LBB1_3:                                @ =>This Inner Loop Header: Depth=1
	@DEBUG_VALUE: stdout_putchar:ch <- $r4
	.loc	3 101 10 is_stmt 1              @ stdout_USART.c:101:10
	blx	r5
.Ltmp23:
	.loc	3 101 3 is_stmt 0               @ stdout_USART.c:101:3
	cmp	r0, #1
	bne	.LBB1_3
.Ltmp24:
.LBB1_4:
	.loc	3 103 1 is_stmt 1               @ stdout_USART.c:103:1
	mov	r0, r4
	pop	{r2, r3, r4, r5, r7, pc}
.Ltmp25:
	.p2align	2
@ %bb.5:
	.loc	3 0 1 is_stmt 0                 @ stdout_USART.c:0:1
__arm_cp.1_0:
	.long	Driver_USART0
.Lcpi_end1:
	.size	__arm_cp.1_0, .Lcpi_end1-__arm_cp.1_0
.Lfunc_end1:
	.size	stdout_putchar, .Lfunc_end1-stdout_putchar
	.cfi_endproc
	.cantunwind
	.fnend
                                        @ -- End function
	.section	".note.GNU-stack","",%progbits
	.eabi_attribute	30, 4	@ Tag_ABI_optimization_goals
	.ARM_attribute	16, 1	@ Tag_AV_eba