	.text
	.syntax unified
	.eabi_attribute	67, "2.09"	@ Tag_conformance
	.cpu	cortex-m33
	.eabi_attribute	6, 17	@ Tag_CPU_arch
	.eabi_attribute	7, 77	@ Tag_CPU_arch_profile
	.eabi_attribute	8, 0	@ Tag_ARM_ISA_use
	.eabi_attribute	9, 3	@ Tag_THUMB_ISA_use
	.fpu	fpv5-sp-d16
	.eabi_attribute	27, 1	@ Tag_ABI_HardFP_use
	.eabi_attribute	36, 1	@ Tag_FP_HP_extension
	.eabi_attribute	46, 1	@ Tag_DSP_extension
	.eabi_attribute	34, 1	@ Tag_CPU_unaligned_access
	.eabi_attribute	17, 1	@ Tag_ABI_PCS_GOT_use
	.eabi_attribute	20, 2	@ Tag_ABI_FP_denormal
	.eabi_attribute	21, 0	@ Tag_ABI_FP_exceptions
	.eabi_attribute	23, 1	@ Tag_ABI_FP_number_model
	.eabi_attribute	24, 1	@ Tag_ABI_align_needed
	.eabi_attribute	25, 1	@ Tag_ABI_align_preserved
	.eabi_attribute	28, 1	@ Tag_ABI_VFP_args
	.eabi_attribute	38, 1	@ Tag_ABI_FP_16bit_format
	.eabi_attribute	18, 2	@ Tag_ABI_PCS_wchar_t
	.eabi_attribute	26, 1	@ Tag_ABI_enum_size
	.eabi_attribute	14, 0	@ Tag_ABI_PCS_R9_use
	.file	"USART_V2M-MPS2.c"
	.file	1 "C:\\" "Keil_v5\\ARM\\ARMCLANG\\Bin\\..\\include\\stdint.h"
	.file	2 "C:/Users/philo/AppData/Local/Arm/Packs/ARM/CMSIS/5.9.0/CMSIS/Driver/Include" "Driver_Common.h"
	.file	3 "C:/Users/philo/AppData/Local/Arm/Packs/ARM/CMSIS/5.9.0/CMSIS/Driver/Include" "Driver_USART.h"
	.file	4 "C:/Users/philo/AppData/Local/Arm/Packs/Keil/V2M-MPS2_IOTKit_BSP/1.5.0/CMSIS/Driver" "USART_V2M-MPS2.c"
	.file	5 "C:/Users/philo/AppData/Local/Arm/Packs/Keil/V2M-MPS2_IOTKit_BSP/1.5.0/CMSIS/Driver" "USART_V2M-MPS2.h"
	.file	6 "C:/Users/philo/AppData/Local/Arm/Packs/Keil/V2M-MPS2_IOTKit_BSP/1.5.0/Device/IOTKit_CM33/Include" "IOTKit_CM33_FP.h"
	.file	7 "C:/Users/philo/AppData/Local/Arm/Packs/ARM/CMSIS/5.9.0/CMSIS/Core/Include" "core_cm33.h"
	.section	.text.UART0RX_Handler,"ax",%progbits
	.hidden	UART0RX_Handler                 @ -- Begin function UART0RX_Handler
	.globl	UART0RX_Handler
	.p2align	2
	.type	UART0RX_Handler,%function
	.code	16                              @ @UART0RX_Handler
	.thumb_func
UART0RX_Handler:
.Lfunc_begin0:
	.loc	4 791 0                         @ C:/Users/philo/AppData/Local/Arm/Packs/Keil/V2M-MPS2_IOTKit_BSP/1.5.0/CMSIS/Driver/USART_V2M-MPS2.c:791:0
	.fnstart
	.cfi_sections .debug_frame
	.cfi_startproc
@ %bb.0:
	.save	{r4, r5, r7, lr}
	push	{r4, r5, r7, lr}
	.cfi_def_cfa_offset 16
	.cfi_offset lr, -4
	.cfi_offset r7, -8
	.cfi_offset r5, -12
	.cfi_offset r4, -16
.Ltmp0:
	.loc	4 720 20 prologue_end           @ C:/Users/philo/AppData/Local/Arm/Packs/Keil/V2M-MPS2_IOTKit_BSP/1.5.0/CMSIS/Driver/USART_V2M-MPS2.c:720:20
	ldr	r0, __arm_cp.0_1
	ldr	r4, __arm_cp.0_0
.Ltmp1:
	.loc	4 719 24                        @ C:/Users/philo/AppData/Local/Arm/Packs/Keil/V2M-MPS2_IOTKit_BSP/1.5.0/CMSIS/Driver/USART_V2M-MPS2.c:719:24
	ldr	r5, [r4, #12]
.Ltmp2:
	@DEBUG_VALUE: USARTRX_IRQHandler:status <- $r5
	.loc	4 720 20                        @ C:/Users/philo/AppData/Local/Arm/Packs/Keil/V2M-MPS2_IOTKit_BSP/1.5.0/CMSIS/Driver/USART_V2M-MPS2.c:720:20
	ldr	r1, [r0, #24]
.Ltmp3:
	.loc	4 720 7 is_stmt 0               @ C:/Users/philo/AppData/Local/Arm/Packs/Keil/V2M-MPS2_IOTKit_BSP/1.5.0/CMSIS/Driver/USART_V2M-MPS2.c:720:7
	cbz	r1, .LBB0_2
.Ltmp4:
@ %bb.1:
	@DEBUG_VALUE: USARTRX_IRQHandler:status <- $r5
	.loc	4 721 44 is_stmt 1              @ C:/Users/philo/AppData/Local/Arm/Packs/Keil/V2M-MPS2_IOTKit_BSP/1.5.0/CMSIS/Driver/USART_V2M-MPS2.c:721:44
	ldr	r2, [r0, #32]
	adds	r3, r2, #1
	str	r3, [r0, #32]
	.loc	4 721 71 is_stmt 0              @ C:/Users/philo/AppData/Local/Arm/Packs/Keil/V2M-MPS2_IOTKit_BSP/1.5.0/CMSIS/Driver/USART_V2M-MPS2.c:721:71
	ldr	r3, [r4]
	.loc	4 721 48                        @ C:/Users/philo/AppData/Local/Arm/Packs/Keil/V2M-MPS2_IOTKit_BSP/1.5.0/CMSIS/Driver/USART_V2M-MPS2.c:721:48
	strb	r3, [r1, r2]
.Ltmp5:
.LBB0_2:
	@DEBUG_VALUE: USARTRX_IRQHandler:status <- $r5
	.loc	4 723 43 is_stmt 1              @ C:/Users/philo/AppData/Local/Arm/Packs/Keil/V2M-MPS2_IOTKit_BSP/1.5.0/CMSIS/Driver/USART_V2M-MPS2.c:723:43
	ldr	r1, [r0, #16]
	.loc	4 723 20 is_stmt 0              @ C:/Users/philo/AppData/Local/Arm/Packs/Keil/V2M-MPS2_IOTKit_BSP/1.5.0/CMSIS/Driver/USART_V2M-MPS2.c:723:20
	ldr	r2, [r0, #32]
.Ltmp6:
	.loc	4 723 7                         @ C:/Users/philo/AppData/Local/Arm/Packs/Keil/V2M-MPS2_IOTKit_BSP/1.5.0/CMSIS/Driver/USART_V2M-MPS2.c:723:7
	cmp	r2, r1
	blo	.LBB0_5
.Ltmp7:
@ %bb.3:
	@DEBUG_VALUE: USARTRX_IRQHandler:status <- $r5
	.loc	4 0 7                           @ C:/Users/philo/AppData/Local/Arm/Packs/Keil/V2M-MPS2_IOTKit_BSP/1.5.0/CMSIS/Driver/USART_V2M-MPS2.c:0:7
	movs	r1, #0
.Ltmp8:
	.loc	4 726 33 is_stmt 1              @ C:/Users/philo/AppData/Local/Arm/Packs/Keil/V2M-MPS2_IOTKit_BSP/1.5.0/CMSIS/Driver/USART_V2M-MPS2.c:726:33
	strb	r1, [r0, #8]
	.loc	4 725 25                        @ C:/Users/philo/AppData/Local/Arm/Packs/Keil/V2M-MPS2_IOTKit_BSP/1.5.0/CMSIS/Driver/USART_V2M-MPS2.c:725:25
	str	r1, [r0, #16]
	.loc	4 729 22                        @ C:/Users/philo/AppData/Local/Arm/Packs/Keil/V2M-MPS2_IOTKit_BSP/1.5.0/CMSIS/Driver/USART_V2M-MPS2.c:729:22
	ldr	r1, [r4, #8]
	bic	r1, r1, #8
	str	r1, [r4, #8]
.Ltmp9:
	.loc	4 732 22                        @ C:/Users/philo/AppData/Local/Arm/Packs/Keil/V2M-MPS2_IOTKit_BSP/1.5.0/CMSIS/Driver/USART_V2M-MPS2.c:732:22
	ldr	r1, [r0, #12]
.Ltmp10:
	.loc	4 732 9 is_stmt 0               @ C:/Users/philo/AppData/Local/Arm/Packs/Keil/V2M-MPS2_IOTKit_BSP/1.5.0/CMSIS/Driver/USART_V2M-MPS2.c:732:9
	cbz	r1, .LBB0_5
.Ltmp11:
@ %bb.4:
	@DEBUG_VALUE: USARTRX_IRQHandler:status <- $r5
	.loc	4 733 7 is_stmt 1               @ C:/Users/philo/AppData/Local/Arm/Packs/Keil/V2M-MPS2_IOTKit_BSP/1.5.0/CMSIS/Driver/USART_V2M-MPS2.c:733:7
	movs	r0, #2
	blx	r1
.Ltmp12:
.LBB0_5:
	@DEBUG_VALUE: USARTRX_IRQHandler:status <- $r5
	.loc	4 737 24                        @ C:/Users/philo/AppData/Local/Arm/Packs/Keil/V2M-MPS2_IOTKit_BSP/1.5.0/CMSIS/Driver/USART_V2M-MPS2.c:737:24
	str	r5, [r4, #12]
.Ltmp13:
	.loc	4 791 158                       @ C:/Users/philo/AppData/Local/Arm/Packs/Keil/V2M-MPS2_IOTKit_BSP/1.5.0/CMSIS/Driver/USART_V2M-MPS2.c:791:158
	pop	{r4, r5, r7, pc}
.Ltmp14:
	.p2align	2
@ %bb.6:
	.loc	4 0 158 is_stmt 0               @ C:/Users/philo/AppData/Local/Arm/Packs/Keil/V2M-MPS2_IOTKit_BSP/1.5.0/CMSIS/Driver/USART_V2M-MPS2.c:0:158
__arm_cp.0_0:
	.long	1075838976                      @ 0x40200000
.Lcpi_end0:
	.size	__arm_cp.0_0, .Lcpi_end0-__arm_cp.0_0
__arm_cp.0_1:
	.long	.L_MergedGlobals
.Lcpi_end1:
	.size	__arm_cp.0_1, .Lcpi_end1-__arm_cp.0_1
.Lfunc_end0:
	.size	UART0RX_Handler, .Lfunc_end0-UART0RX_Handler
	.cfi_endproc
	.cantunwind
	.fnend
                                        @ -- End function
	.section	.text.UART0TX_Handler,"ax",%progbits
	.hidden	UART0TX_Handler                 @ -- Begin function UART0TX_Handler
	.globl	UART0TX_Handler
	.p2align	2
	.type	UART0TX_Handler,%function
	.code	16                              @ @UART0TX_Handler
	.thumb_func
UART0TX_Handler:
.Lfunc_begin1:
	.loc	4 792 0 is_stmt 1               @ C:/Users/philo/AppData/Local/Arm/Packs/Keil/V2M-MPS2_IOTKit_BSP/1.5.0/CMSIS/Driver/USART_V2M-MPS2.c:792:0
	.fnstart
	.cfi_startproc
@ %bb.0:
	.save	{r4, r5, r7, lr}
	push	{r4, r5, r7, lr}
	.cfi_def_cfa_offset 16
	.cfi_offset lr, -4
	.cfi_offset r7, -8
	.cfi_offset r5, -12
	.cfi_offset r4, -16
.Ltmp15:
	.loc	4 749 20 prologue_end           @ C:/Users/philo/AppData/Local/Arm/Packs/Keil/V2M-MPS2_IOTKit_BSP/1.5.0/CMSIS/Driver/USART_V2M-MPS2.c:749:20
	ldr	r0, __arm_cp.1_1
	ldr	r4, __arm_cp.1_0
.Ltmp16:
	.loc	4 748 24                        @ C:/Users/philo/AppData/Local/Arm/Packs/Keil/V2M-MPS2_IOTKit_BSP/1.5.0/CMSIS/Driver/USART_V2M-MPS2.c:748:24
	ldr	r5, [r4, #12]
.Ltmp17:
	@DEBUG_VALUE: USARTTX_IRQHandler:status <- $r5
	.loc	4 749 20                        @ C:/Users/philo/AppData/Local/Arm/Packs/Keil/V2M-MPS2_IOTKit_BSP/1.5.0/CMSIS/Driver/USART_V2M-MPS2.c:749:20
	ldr	r1, [r0, #20]
.Ltmp18:
	.loc	4 749 7 is_stmt 0               @ C:/Users/philo/AppData/Local/Arm/Packs/Keil/V2M-MPS2_IOTKit_BSP/1.5.0/CMSIS/Driver/USART_V2M-MPS2.c:749:7
	cbz	r1, .LBB1_5
.Ltmp19:
@ %bb.1:
	@DEBUG_VALUE: USARTTX_IRQHandler:status <- $r5
	.loc	4 751 24 is_stmt 1              @ C:/Users/philo/AppData/Local/Arm/Packs/Keil/V2M-MPS2_IOTKit_BSP/1.5.0/CMSIS/Driver/USART_V2M-MPS2.c:751:24
	ldr	r2, [r0, #36]
	adds	r2, #1
	.loc	4 753 9                         @ C:/Users/philo/AppData/Local/Arm/Packs/Keil/V2M-MPS2_IOTKit_BSP/1.5.0/CMSIS/Driver/USART_V2M-MPS2.c:753:9
	cmp	r2, r1
	.loc	4 751 24                        @ C:/Users/philo/AppData/Local/Arm/Packs/Keil/V2M-MPS2_IOTKit_BSP/1.5.0/CMSIS/Driver/USART_V2M-MPS2.c:751:24
	str	r2, [r0, #36]
	.loc	4 753 9                         @ C:/Users/philo/AppData/Local/Arm/Packs/Keil/V2M-MPS2_IOTKit_BSP/1.5.0/CMSIS/Driver/USART_V2M-MPS2.c:753:9
	bhs	.LBB1_3
.Ltmp20:
@ %bb.2:
	@DEBUG_VALUE: USARTTX_IRQHandler:status <- $r5
	.loc	4 755 39                        @ C:/Users/philo/AppData/Local/Arm/Packs/Keil/V2M-MPS2_IOTKit_BSP/1.5.0/CMSIS/Driver/USART_V2M-MPS2.c:755:39
	ldr	r0, [r0, #28]
	.loc	4 755 26 is_stmt 0              @ C:/Users/philo/AppData/Local/Arm/Packs/Keil/V2M-MPS2_IOTKit_BSP/1.5.0/CMSIS/Driver/USART_V2M-MPS2.c:755:26
	ldrb	r0, [r0, r2]
	.loc	4 755 24                        @ C:/Users/philo/AppData/Local/Arm/Packs/Keil/V2M-MPS2_IOTKit_BSP/1.5.0/CMSIS/Driver/USART_V2M-MPS2.c:755:24
	str	r0, [r4]
	b	.LBB1_5
.Ltmp21:
.LBB1_3:
	@DEBUG_VALUE: USARTTX_IRQHandler:status <- $r5
	.loc	4 0 24                          @ C:/Users/philo/AppData/Local/Arm/Packs/Keil/V2M-MPS2_IOTKit_BSP/1.5.0/CMSIS/Driver/USART_V2M-MPS2.c:0:24
	movs	r1, #0
.Ltmp22:
	.loc	4 759 35 is_stmt 1              @ C:/Users/philo/AppData/Local/Arm/Packs/Keil/V2M-MPS2_IOTKit_BSP/1.5.0/CMSIS/Driver/USART_V2M-MPS2.c:759:35
	strb	r1, [r0, #4]
	.loc	4 758 27                        @ C:/Users/philo/AppData/Local/Arm/Packs/Keil/V2M-MPS2_IOTKit_BSP/1.5.0/CMSIS/Driver/USART_V2M-MPS2.c:758:27
	str	r1, [r0, #20]
	.loc	4 762 24                        @ C:/Users/philo/AppData/Local/Arm/Packs/Keil/V2M-MPS2_IOTKit_BSP/1.5.0/CMSIS/Driver/USART_V2M-MPS2.c:762:24
	ldr	r1, [r4, #8]
	bic	r1, r1, #4
	str	r1, [r4, #8]
.Ltmp23:
	.loc	4 765 24                        @ C:/Users/philo/AppData/Local/Arm/Packs/Keil/V2M-MPS2_IOTKit_BSP/1.5.0/CMSIS/Driver/USART_V2M-MPS2.c:765:24
	ldr	r1, [r0, #12]
.Ltmp24:
	.loc	4 765 11 is_stmt 0              @ C:/Users/philo/AppData/Local/Arm/Packs/Keil/V2M-MPS2_IOTKit_BSP/1.5.0/CMSIS/Driver/USART_V2M-MPS2.c:765:11
	cbz	r1, .LBB1_5
.Ltmp25:
@ %bb.4:
	@DEBUG_VALUE: USARTTX_IRQHandler:status <- $r5
	.loc	4 766 9 is_stmt 1               @ C:/Users/philo/AppData/Local/Arm/Packs/Keil/V2M-MPS2_IOTKit_BSP/1.5.0/CMSIS/Driver/USART_V2M-MPS2.c:766:9
	movs	r0, #1
	blx	r1
.Ltmp26:
.LBB1_5:
	@DEBUG_VALUE: USARTTX_IRQHandler:status <- $r5
	.loc	4 771 24                        @ C:/Users/philo/AppData/Local/Arm/Packs/Keil/V2M-MPS2_IOTKit_BSP/1.5.0/CMSIS/Driver/USART_V2M-MPS2.c:771:24
	str	r5, [r4, #12]
.Ltmp27:
	.loc	4 792 158                       @ C:/Users/philo/AppData/Local/Arm/Packs/Keil/V2M-MPS2_IOTKit_BSP/1.5.0/CMSIS/Driver/USART_V2M-MPS2.c:792:158
	pop	{r4, r5, r7, pc}
.Ltmp28:
	.p2align	2
@ %bb.6:
	.loc	4 0 158 is_stmt 0               @ C:/Users/philo/AppData/Local/Arm/Packs/Keil/V2M-MPS2_IOTKit_BSP/1.5.0/CMSIS/Driver/USART_V2M-MPS2.c:0:158
__arm_cp.1_0:
	.long	1075838976                      @ 0x40200000
.Lcpi_end2:
	.size	__arm_cp.1_0, .Lcpi_end2-__arm_cp.1_0
__arm_cp.1_1:
	.long	.L_MergedGlobals
.Lcpi_end3:
	.size	__arm_cp.1_1, .Lcpi_end3-__arm_cp.1_1
.Lfunc_end1:
	.size	UART0TX_Handler, .Lfunc_end1-UART0TX_Handler
	.cfi_endproc
	.cantunwind
	.fnend
                                        @ -- End function
	.section	.text.USARTx_GetVersion,"ax",%progbits
	.p2align	2                               @ -- Begin function USARTx_GetVersion
	.type	USARTx_GetVersion,%function
	.code	16                              @ @USARTx_GetVersion
	.thumb_func
USARTx_GetVersion:
.Lfunc_begin2:
	.loc	4 295 0 is_stmt 1               @ C:/Users/philo/AppData/Local/Arm/Packs/Keil/V2M-MPS2_IOTKit_BSP/1.5.0/CMSIS/Driver/USART_V2M-MPS2.c:295:0
	.fnstart
	.cfi_startproc
@ %bb.0:
	ldr	r0, __arm_cp.2_0
.Ltmp29:
	.loc	4 296 3 prologue_end            @ C:/Users/philo/AppData/Local/Arm/Packs/Keil/V2M-MPS2_IOTKit_BSP/1.5.0/CMSIS/Driver/USART_V2M-MPS2.c:296:3
	bx	lr
.Ltmp30:
	.p2align	2
@ %bb.1:
	.loc	4 0 3 is_stmt 0                 @ C:/Users/philo/AppData/Local/Arm/Packs/Keil/V2M-MPS2_IOTKit_BSP/1.5.0/CMSIS/Driver/USART_V2M-MPS2.c:0:3
__arm_cp.2_0:
	.long	16777732                        @ 0x1000204
.Lcpi_end4:
	.size	__arm_cp.2_0, .Lcpi_end4-__arm_cp.2_0
.Lfunc_end2:
	.size	USARTx_GetVersion, .Lfunc_end2-USARTx_GetVersion
	.cfi_endproc
	.cantunwind
	.fnend
                                        @ -- End function
	.section	.text.USART0_GetCapabilities,"ax",%progbits
	.p2align	1                               @ -- Begin function USART0_GetCapabilities
	.type	USART0_GetCapabilities,%function
	.code	16                              @ @USART0_GetCapabilities
	.thumb_func
USART0_GetCapabilities:
.Lfunc_begin3:
	.loc	4 778 0 is_stmt 1               @ C:/Users/philo/AppData/Local/Arm/Packs/Keil/V2M-MPS2_IOTKit_BSP/1.5.0/CMSIS/Driver/USART_V2M-MPS2.c:778:0
	.fnstart
	.cfi_startproc
@ %bb.0:
	.loc	4 778 111 prologue_end          @ C:/Users/philo/AppData/Local/Arm/Packs/Keil/V2M-MPS2_IOTKit_BSP/1.5.0/CMSIS/Driver/USART_V2M-MPS2.c:778:111
	movw	r0, #1537
	bx	lr
.Ltmp31:
.Lfunc_end3:
	.size	USART0_GetCapabilities, .Lfunc_end3-USART0_GetCapabilities
	.cfi_endproc
	.cantunwind
	.fnend
                                        @ -- End function
	.section	.text.USART0_Initialize,"ax",%progbits
	.p2align	2                               @ -- Begin function USART0_Initialize
	.type	USART0_Initialize,%function
	.code	16                              @ @USART0_Initialize
	.thumb_func
USART0_Initialize:
.Lfunc_begin4:
	.loc	4 779 0                         @ C:/Users/philo/AppData/Local/Arm/Packs/Keil/V2M-MPS2_IOTKit_BSP/1.5.0/CMSIS/Driver/USART_V2M-MPS2.c:779:0
	.fnstart
	.cfi_startproc
@ %bb.0:
	@DEBUG_VALUE: USART0_Initialize:cb_event <- $r0
	@DEBUG_VALUE: USART0_Initialize:cb_event <- $r0
	@DEBUG_VALUE: USART_Initialize:cb_event <- $r0
	@DEBUG_VALUE: USART_Initialize:cb_event <- $r0
	.save	{r4, lr}
	push	{r4, lr}
	.cfi_def_cfa_offset 8
	.cfi_offset lr, -4
	.cfi_offset r4, -8
.Ltmp32:
	.loc	4 320 20 prologue_end           @ C:/Users/philo/AppData/Local/Arm/Packs/Keil/V2M-MPS2_IOTKit_BSP/1.5.0/CMSIS/Driver/USART_V2M-MPS2.c:320:20
	ldr	r4, __arm_cp.4_0
	ldrb	r1, [r4]
.Ltmp33:
	.loc	4 320 7 is_stmt 0               @ C:/Users/philo/AppData/Local/Arm/Packs/Keil/V2M-MPS2_IOTKit_BSP/1.5.0/CMSIS/Driver/USART_V2M-MPS2.c:320:7
	lsls	r1, r1, #31
	bne	.LBB4_2
.Ltmp34:
@ %bb.1:
	@DEBUG_VALUE: USART_Initialize:cb_event <- $r0
	@DEBUG_VALUE: USART0_Initialize:cb_event <- $r0
	.loc	4 326 25 is_stmt 1              @ C:/Users/philo/AppData/Local/Arm/Packs/Keil/V2M-MPS2_IOTKit_BSP/1.5.0/CMSIS/Driver/USART_V2M-MPS2.c:326:25
	str	r0, [r4, #12]
	.loc	4 329 3                         @ C:/Users/philo/AppData/Local/Arm/Packs/Keil/V2M-MPS2_IOTKit_BSP/1.5.0/CMSIS/Driver/USART_V2M-MPS2.c:329:3
	add.w	r0, r4, #16
.Ltmp35:
	@DEBUG_VALUE: USART0_Initialize:cb_event <- [DW_OP_LLVM_entry_value 1] $r0
	movs	r1, #24
	bl	__aeabi_memclr4
.Ltmp36:
	.loc	4 0 3 is_stmt 0                 @ C:/Users/philo/AppData/Local/Arm/Packs/Keil/V2M-MPS2_IOTKit_BSP/1.5.0/CMSIS/Driver/USART_V2M-MPS2.c:0:3
	ldr	r0, __arm_cp.4_1
	.loc	4 332 43 is_stmt 1              @ C:/Users/philo/AppData/Local/Arm/Packs/Keil/V2M-MPS2_IOTKit_BSP/1.5.0/CMSIS/Driver/USART_V2M-MPS2.c:332:43
	ldr	r1, [r0]
	orr	r1, r1, #1
	str	r1, [r0]
	movs	r1, #1
	.loc	4 335 22                        @ C:/Users/philo/AppData/Local/Arm/Packs/Keil/V2M-MPS2_IOTKit_BSP/1.5.0/CMSIS/Driver/USART_V2M-MPS2.c:335:22
	strb	r1, [r4]
	.loc	4 333 43                        @ C:/Users/philo/AppData/Local/Arm/Packs/Keil/V2M-MPS2_IOTKit_BSP/1.5.0/CMSIS/Driver/USART_V2M-MPS2.c:333:43
	ldr	r1, [r0]
	orr	r1, r1, #2
	str	r1, [r0]
.Ltmp37:
.LBB4_2:
	.loc	4 779 111                       @ C:/Users/philo/AppData/Local/Arm/Packs/Keil/V2M-MPS2_IOTKit_BSP/1.5.0/CMSIS/Driver/USART_V2M-MPS2.c:779:111
	movs	r0, #0
	pop	{r4, pc}
.Ltmp38:
	.p2align	2
@ %bb.3:
	.loc	4 0 111 is_stmt 0               @ C:/Users/philo/AppData/Local/Arm/Packs/Keil/V2M-MPS2_IOTKit_BSP/1.5.0/CMSIS/Driver/USART_V2M-MPS2.c:0:111
__arm_cp.4_0:
	.long	.L_MergedGlobals
.Lcpi_end5:
	.size	__arm_cp.4_0, .Lcpi_end5-__arm_cp.4_0
__arm_cp.4_1:
	.long	1074794520                      @ 0x40101018
.Lcpi_end6:
	.size	__arm_cp.4_1, .Lcpi_end6-__arm_cp.4_1
.Lfunc_end4:
	.size	USART0_Initialize, .Lfunc_end4-USART0_Initialize
	.cfi_endproc
	.cantunwind
	.fnend
                                        @ -- End function
	.section	.text.USART0_Uninitialize,"ax",%progbits
	.p2align	2                               @ -- Begin function USART0_Uninitialize
	.type	USART0_Uninitialize,%function
	.code	16                              @ @USART0_Uninitialize
	.thumb_func
USART0_Uninitialize:
.Lfunc_begin5:
	.loc	4 780 0 is_stmt 1               @ C:/Users/philo/AppData/Local/Arm/Packs/Keil/V2M-MPS2_IOTKit_BSP/1.5.0/CMSIS/Driver/USART_V2M-MPS2.c:780:0
	.fnstart
	.cfi_startproc
@ %bb.0:
	ldr	r0, __arm_cp.5_0
	movs	r2, #0
.Ltmp39:
	.loc	4 349 43 prologue_end           @ C:/Users/philo/AppData/Local/Arm/Packs/Keil/V2M-MPS2_IOTKit_BSP/1.5.0/CMSIS/Driver/USART_V2M-MPS2.c:349:43
	ldr	r1, [r0]
	bic	r1, r1, #1
	str	r1, [r0]
	.loc	4 352 22                        @ C:/Users/philo/AppData/Local/Arm/Packs/Keil/V2M-MPS2_IOTKit_BSP/1.5.0/CMSIS/Driver/USART_V2M-MPS2.c:352:22
	ldr	r1, __arm_cp.5_1
	strb	r2, [r1]
	.loc	4 350 43                        @ C:/Users/philo/AppData/Local/Arm/Packs/Keil/V2M-MPS2_IOTKit_BSP/1.5.0/CMSIS/Driver/USART_V2M-MPS2.c:350:43
	ldr	r1, [r0]
	bic	r1, r1, #2
	str	r1, [r0]
.Ltmp40:
	.loc	4 780 111                       @ C:/Users/philo/AppData/Local/Arm/Packs/Keil/V2M-MPS2_IOTKit_BSP/1.5.0/CMSIS/Driver/USART_V2M-MPS2.c:780:111
	movs	r0, #0
	bx	lr
.Ltmp41:
	.p2align	2
@ %bb.1:
	.loc	4 0 111 is_stmt 0               @ C:/Users/philo/AppData/Local/Arm/Packs/Keil/V2M-MPS2_IOTKit_BSP/1.5.0/CMSIS/Driver/USART_V2M-MPS2.c:0:111
__arm_cp.5_0:
	.long	1074794520                      @ 0x40101018
.Lcpi_end7:
	.size	__arm_cp.5_0, .Lcpi_end7-__arm_cp.5_0
__arm_cp.5_1:
	.long	.L_MergedGlobals
.Lcpi_end8:
	.size	__arm_cp.5_1, .Lcpi_end8-__arm_cp.5_1
.Lfunc_end5:
	.size	USART0_Uninitialize, .Lfunc_end5-USART0_Uninitialize
	.cfi_endproc
	.cantunwind
	.fnend
                                        @ -- End function
	.section	.text.USART0_PowerControl,"ax",%progbits
	.p2align	2                               @ -- Begin function USART0_PowerControl
	.type	USART0_PowerControl,%function
	.code	16                              @ @USART0_PowerControl
	.thumb_func
USART0_PowerControl:
.Lfunc_begin6:
	.loc	4 781 0 is_stmt 1               @ C:/Users/philo/AppData/Local/Arm/Packs/Keil/V2M-MPS2_IOTKit_BSP/1.5.0/CMSIS/Driver/USART_V2M-MPS2.c:781:0
	.fnstart
	.cfi_startproc
@ %bb.0:
	@DEBUG_VALUE: USART0_PowerControl:state <- $r0
	@DEBUG_VALUE: USART0_PowerControl:state <- $r0
	@DEBUG_VALUE: USART_PowerControl:state <- $r0
	@DEBUG_VALUE: USART_PowerControl:state <- $r0
	.loc	4 367 3 prologue_end            @ C:/Users/philo/AppData/Local/Arm/Packs/Keil/V2M-MPS2_IOTKit_BSP/1.5.0/CMSIS/Driver/USART_V2M-MPS2.c:367:3
	cmp	r0, #2
	beq	.LBB6_4
.Ltmp42:
@ %bb.1:
	@DEBUG_VALUE: USART_PowerControl:state <- $r0
	@DEBUG_VALUE: USART0_PowerControl:state <- $r0
	cmp	r0, #1
	itt	eq
	mvneq	r0, #3
.Ltmp43:
	@DEBUG_VALUE: USART0_PowerControl:state <- [DW_OP_LLVM_entry_value 1] $r0
	.loc	4 781 111                       @ C:/Users/philo/AppData/Local/Arm/Packs/Keil/V2M-MPS2_IOTKit_BSP/1.5.0/CMSIS/Driver/USART_V2M-MPS2.c:781:111
	bxeq	lr
.Ltmp44:
.LBB6_2:
	@DEBUG_VALUE: USART0_PowerControl:state <- [DW_OP_LLVM_entry_value 1] $r0
	.loc	4 367 3                         @ C:/Users/philo/AppData/Local/Arm/Packs/Keil/V2M-MPS2_IOTKit_BSP/1.5.0/CMSIS/Driver/USART_V2M-MPS2.c:367:3
	cbnz	r0, .LBB6_7
.Ltmp45:
@ %bb.3:
	@DEBUG_VALUE: USART0_PowerControl:state <- [DW_OP_LLVM_entry_value 1] $r0
	.loc	4 0 3 is_stmt 0                 @ C:/Users/philo/AppData/Local/Arm/Packs/Keil/V2M-MPS2_IOTKit_BSP/1.5.0/CMSIS/Driver/USART_V2M-MPS2.c:0:3
	ldr	r0, __arm_cp.6_1
	movs	r1, #1
.Ltmp46:
	@DEBUG_VALUE: __NVIC_DisableIRQ:IRQn <- 32
	.loc	4 370 26 is_stmt 1              @ C:/Users/philo/AppData/Local/Arm/Packs/Keil/V2M-MPS2_IOTKit_BSP/1.5.0/CMSIS/Driver/USART_V2M-MPS2.c:370:26
	ldr	r2, __arm_cp.6_0
.Ltmp47:
	.loc	7 2432 43                       @ C:/Users/philo/AppData/Local/Arm/Packs/ARM/CMSIS/5.9.0/CMSIS/Core/Include\core_cm33.h:2432:43
	str.w	r1, [r0, #128]
.Ltmp48:
	.loc	4 370 26                        @ C:/Users/philo/AppData/Local/Arm/Packs/Keil/V2M-MPS2_IOTKit_BSP/1.5.0/CMSIS/Driver/USART_V2M-MPS2.c:370:26
	ldrb	r3, [r2]
	and	r3, r3, #253
	strb	r3, [r2]
.Ltmp49:
	.loc	7 2433 5                        @ C:/Users/philo/AppData/Local/Arm/Packs/ARM/CMSIS/5.9.0/CMSIS/Core/Include\core_cm33.h:2433:5
	dsb	sy
	@DEBUG_VALUE: __NVIC_DisableIRQ:IRQn <- 32
	.loc	7 2434 5                        @ C:/Users/philo/AppData/Local/Arm/Packs/ARM/CMSIS/5.9.0/CMSIS/Core/Include\core_cm33.h:2434:5
	isb	sy
.Ltmp50:
	@DEBUG_VALUE: __NVIC_ClearPendingIRQ:IRQn <- 32
	.loc	7 2485 43                       @ C:/Users/philo/AppData/Local/Arm/Packs/ARM/CMSIS/5.9.0/CMSIS/Core/Include\core_cm33.h:2485:43
	str.w	r1, [r0, #384]
	movs	r1, #2
.Ltmp51:
	@DEBUG_VALUE: __NVIC_DisableIRQ:IRQn <- 33
	.loc	7 2432 43                       @ C:/Users/philo/AppData/Local/Arm/Packs/ARM/CMSIS/5.9.0/CMSIS/Core/Include\core_cm33.h:2432:43
	str.w	r1, [r0, #128]
	.loc	7 2433 5                        @ C:/Users/philo/AppData/Local/Arm/Packs/ARM/CMSIS/5.9.0/CMSIS/Core/Include\core_cm33.h:2433:5
	dsb	sy
	.loc	7 2434 5                        @ C:/Users/philo/AppData/Local/Arm/Packs/ARM/CMSIS/5.9.0/CMSIS/Core/Include\core_cm33.h:2434:5
	isb	sy
.Ltmp52:
	@DEBUG_VALUE: __NVIC_ClearPendingIRQ:IRQn <- 33
	.loc	7 2485 43                       @ C:/Users/philo/AppData/Local/Arm/Packs/ARM/CMSIS/5.9.0/CMSIS/Core/Include\core_cm33.h:2485:43
	str.w	r1, [r0, #384]
	b	.LBB6_7
.Ltmp53:
.LBB6_4:
	@DEBUG_VALUE: USART_PowerControl:state <- $r0
	@DEBUG_VALUE: USART0_PowerControl:state <- $r0
	.loc	4 383 25                        @ C:/Users/philo/AppData/Local/Arm/Packs/Keil/V2M-MPS2_IOTKit_BSP/1.5.0/CMSIS/Driver/USART_V2M-MPS2.c:383:25
	ldr	r1, __arm_cp.6_0
	ldrb	r0, [r1]
.Ltmp54:
	@DEBUG_VALUE: USART0_PowerControl:state <- [DW_OP_LLVM_entry_value 1] $r0
	.loc	4 383 11 is_stmt 0              @ C:/Users/philo/AppData/Local/Arm/Packs/Keil/V2M-MPS2_IOTKit_BSP/1.5.0/CMSIS/Driver/USART_V2M-MPS2.c:383:11
	lsls	r2, r0, #31
	itt	eq
	moveq.w	r0, #-1
.Ltmp55:
	.loc	4 781 111 is_stmt 1             @ C:/Users/philo/AppData/Local/Arm/Packs/Keil/V2M-MPS2_IOTKit_BSP/1.5.0/CMSIS/Driver/USART_V2M-MPS2.c:781:111
	bxeq	lr
.Ltmp56:
.LBB6_5:
	@DEBUG_VALUE: USART0_PowerControl:state <- [DW_OP_LLVM_entry_value 1] $r0
	.loc	4 386 11                        @ C:/Users/philo/AppData/Local/Arm/Packs/Keil/V2M-MPS2_IOTKit_BSP/1.5.0/CMSIS/Driver/USART_V2M-MPS2.c:386:11
	lsls	r0, r0, #30
	mov.w	r0, #0
	bmi	.LBB6_8
.Ltmp57:
@ %bb.6:
	@DEBUG_VALUE: USART0_PowerControl:state <- [DW_OP_LLVM_entry_value 1] $r0
	.loc	4 392 41                        @ C:/Users/philo/AppData/Local/Arm/Packs/Keil/V2M-MPS2_IOTKit_BSP/1.5.0/CMSIS/Driver/USART_V2M-MPS2.c:392:41
	strb	r0, [r1, #8]
	.loc	4 391 41                        @ C:/Users/philo/AppData/Local/Arm/Packs/Keil/V2M-MPS2_IOTKit_BSP/1.5.0/CMSIS/Driver/USART_V2M-MPS2.c:391:41
	strb	r0, [r1, #4]
	movs	r0, #3
	.loc	4 396 26                        @ C:/Users/philo/AppData/Local/Arm/Packs/Keil/V2M-MPS2_IOTKit_BSP/1.5.0/CMSIS/Driver/USART_V2M-MPS2.c:396:26
	strb	r0, [r1]
	ldr	r0, __arm_cp.6_1
	movs	r1, #1
.Ltmp58:
	@DEBUG_VALUE: __NVIC_ClearPendingIRQ:IRQn <- 32
	.loc	7 2485 43                       @ C:/Users/philo/AppData/Local/Arm/Packs/ARM/CMSIS/5.9.0/CMSIS/Core/Include\core_cm33.h:2485:43
	str.w	r1, [r0, #384]
.Ltmp59:
	@DEBUG_VALUE: __NVIC_EnableIRQ:IRQn <- 32
	.loc	7 2394 5                        @ C:/Users/philo/AppData/Local/Arm/Packs/ARM/CMSIS/5.9.0/CMSIS/Core/Include\core_cm33.h:2394:5
	@APP
	@NO_APP
	.loc	7 2395 43                       @ C:/Users/philo/AppData/Local/Arm/Packs/ARM/CMSIS/5.9.0/CMSIS/Core/Include\core_cm33.h:2395:43
	str	r1, [r0]
	movs	r1, #2
.Ltmp60:
	@DEBUG_VALUE: __NVIC_ClearPendingIRQ:IRQn <- 33
	.loc	7 2396 5                        @ C:/Users/philo/AppData/Local/Arm/Packs/ARM/CMSIS/5.9.0/CMSIS/Core/Include\core_cm33.h:2396:5
	@APP
	@NO_APP
.Ltmp61:
	.loc	7 2485 43                       @ C:/Users/philo/AppData/Local/Arm/Packs/ARM/CMSIS/5.9.0/CMSIS/Core/Include\core_cm33.h:2485:43
	str.w	r1, [r0, #384]
.Ltmp62:
	@DEBUG_VALUE: __NVIC_EnableIRQ:IRQn <- 33
	.loc	7 2394 5                        @ C:/Users/philo/AppData/Local/Arm/Packs/ARM/CMSIS/5.9.0/CMSIS/Core/Include\core_cm33.h:2394:5
	@APP
	@NO_APP
	.loc	7 2395 43                       @ C:/Users/philo/AppData/Local/Arm/Packs/ARM/CMSIS/5.9.0/CMSIS/Core/Include\core_cm33.h:2395:43
	str	r1, [r0]
	.loc	7 2396 5                        @ C:/Users/philo/AppData/Local/Arm/Packs/ARM/CMSIS/5.9.0/CMSIS/Core/Include\core_cm33.h:2396:5
	@APP
	@NO_APP
.Ltmp63:
.LBB6_7:
	@DEBUG_VALUE: USART0_PowerControl:state <- [DW_OP_LLVM_entry_value 1] $r0
	.loc	7 0 5 is_stmt 0                 @ C:/Users/philo/AppData/Local/Arm/Packs/ARM/CMSIS/5.9.0/CMSIS/Core/Include\core_cm33.h:0:5
	movs	r0, #0
.Ltmp64:
.LBB6_8:
	@DEBUG_VALUE: USART0_PowerControl:state <- [DW_OP_LLVM_entry_value 1] $r0
	.loc	4 781 111 is_stmt 1             @ C:/Users/philo/AppData/Local/Arm/Packs/Keil/V2M-MPS2_IOTKit_BSP/1.5.0/CMSIS/Driver/USART_V2M-MPS2.c:781:111
	bx	lr
.Ltmp65:
	.p2align	2
@ %bb.9:
	.loc	4 0 111 is_stmt 0               @ C:/Users/philo/AppData/Local/Arm/Packs/Keil/V2M-MPS2_IOTKit_BSP/1.5.0/CMSIS/Driver/USART_V2M-MPS2.c:0:111
__arm_cp.6_0:
	.long	.L_MergedGlobals
.Lcpi_end9:
	.size	__arm_cp.6_0, .Lcpi_end9-__arm_cp.6_0
__arm_cp.6_1:
	.long	3758153988                      @ 0xe000e104
.Lcpi_end10:
	.size	__arm_cp.6_1, .Lcpi_end10-__arm_cp.6_1
.Lfunc_end6:
	.size	USART0_PowerControl, .Lfunc_end6-USART0_PowerControl
	.cfi_endproc
	.cantunwind
	.fnend
                                        @ -- End function
	.section	.text.USART0_Send,"ax",%progbits
	.p2align	2                               @ -- Begin function USART0_Send
	.type	USART0_Send,%function
	.code	16                              @ @USART0_Send
	.thumb_func
USART0_Send:
.Lfunc_begin7:
	.loc	4 782 0 is_stmt 1               @ C:/Users/philo/AppData/Local/Arm/Packs/Keil/V2M-MPS2_IOTKit_BSP/1.5.0/CMSIS/Driver/USART_V2M-MPS2.c:782:0
	.fnstart
	.cfi_startproc
@ %bb.0:
	@DEBUG_VALUE: USART0_Send:data <- $r0
	@DEBUG_VALUE: USART0_Send:num <- $r1
	@DEBUG_VALUE: USART_Send:data <- $r0
	@DEBUG_VALUE: USART_Send:num <- $r1
	@DEBUG_VALUE: USART_Send:num <- $r1
	@DEBUG_VALUE: USART_Send:data <- $r0
	@DEBUG_VALUE: USART0_Send:num <- $r1
	@DEBUG_VALUE: USART0_Send:data <- $r0
	.save	{r4, lr}
	push	{r4, lr}
	.cfi_def_cfa_offset 8
	.cfi_offset lr, -4
	.cfi_offset r4, -8
.Ltmp66:
	.loc	4 424 22 prologue_end           @ C:/Users/philo/AppData/Local/Arm/Packs/Keil/V2M-MPS2_IOTKit_BSP/1.5.0/CMSIS/Driver/USART_V2M-MPS2.c:424:22
	cbz	r0, .LBB7_6
.Ltmp67:
@ %bb.1:
	@DEBUG_VALUE: USART_Send:num <- $r1
	@DEBUG_VALUE: USART0_Send:num <- $r1
	@DEBUG_VALUE: USART_Send:data <- $r0
	@DEBUG_VALUE: USART0_Send:data <- $r0
	@DEBUG_VALUE: USART0_Send:data <- $r0
	@DEBUG_VALUE: USART_Send:data <- $r0
	.loc	4 424 7 is_stmt 0               @ C:/Users/philo/AppData/Local/Arm/Packs/Keil/V2M-MPS2_IOTKit_BSP/1.5.0/CMSIS/Driver/USART_V2M-MPS2.c:424:7
	cbz	r1, .LBB7_6
.Ltmp68:
@ %bb.2:
	@DEBUG_VALUE: USART_Send:num <- $r1
	@DEBUG_VALUE: USART0_Send:num <- $r1
	@DEBUG_VALUE: USART_Send:data <- $r0
	@DEBUG_VALUE: USART0_Send:data <- $r0
	.loc	4 429 21 is_stmt 1              @ C:/Users/philo/AppData/Local/Arm/Packs/Keil/V2M-MPS2_IOTKit_BSP/1.5.0/CMSIS/Driver/USART_V2M-MPS2.c:429:21
	ldr	r3, __arm_cp.7_0
	mov	r2, r0
.Ltmp69:
	@DEBUG_VALUE: USART_Send:data <- $r2
	@DEBUG_VALUE: USART0_Send:data <- $r2
	ldrb	r0, [r3]
.Ltmp70:
	.loc	4 429 7 is_stmt 0               @ C:/Users/philo/AppData/Local/Arm/Packs/Keil/V2M-MPS2_IOTKit_BSP/1.5.0/CMSIS/Driver/USART_V2M-MPS2.c:429:7
	lsls	r0, r0, #29
	itt	pl
	movpl.w	r0, #-1
.Ltmp71:
	.loc	4 782 111 is_stmt 1             @ C:/Users/philo/AppData/Local/Arm/Packs/Keil/V2M-MPS2_IOTKit_BSP/1.5.0/CMSIS/Driver/USART_V2M-MPS2.c:782:111
	poppl	{r4, pc}
.Ltmp72:
.LBB7_3:
	@DEBUG_VALUE: USART0_Send:data <- $r2
	@DEBUG_VALUE: USART_Send:data <- $r2
	@DEBUG_VALUE: USART_Send:num <- $r1
	@DEBUG_VALUE: USART0_Send:num <- $r1
	.loc	4 434 28                        @ C:/Users/philo/AppData/Local/Arm/Packs/Keil/V2M-MPS2_IOTKit_BSP/1.5.0/CMSIS/Driver/USART_V2M-MPS2.c:434:28
	ldrb	r0, [r3, #4]
	.loc	4 434 43 is_stmt 0              @ C:/Users/philo/AppData/Local/Arm/Packs/Keil/V2M-MPS2_IOTKit_BSP/1.5.0/CMSIS/Driver/USART_V2M-MPS2.c:434:43
	cbnz	r0, .LBB7_7
.Ltmp73:
@ %bb.4:
	@DEBUG_VALUE: USART0_Send:data <- $r2
	@DEBUG_VALUE: USART_Send:data <- $r2
	@DEBUG_VALUE: USART_Send:num <- $r1
	@DEBUG_VALUE: USART0_Send:num <- $r1
	.loc	4 0 43                          @ C:/Users/philo/AppData/Local/Arm/Packs/Keil/V2M-MPS2_IOTKit_BSP/1.5.0/CMSIS/Driver/USART_V2M-MPS2.c:0:43
	ldr	r4, __arm_cp.7_1
	.loc	4 435 20 is_stmt 1              @ C:/Users/philo/AppData/Local/Arm/Packs/Keil/V2M-MPS2_IOTKit_BSP/1.5.0/CMSIS/Driver/USART_V2M-MPS2.c:435:20
	ldr	r0, [r4, #4]
.Ltmp74:
	.loc	4 434 7                         @ C:/Users/philo/AppData/Local/Arm/Packs/Keil/V2M-MPS2_IOTKit_BSP/1.5.0/CMSIS/Driver/USART_V2M-MPS2.c:434:7
	lsls	r0, r0, #31
	bne	.LBB7_7
.Ltmp75:
@ %bb.5:
	@DEBUG_VALUE: USART0_Send:data <- $r2
	@DEBUG_VALUE: USART_Send:data <- $r2
	@DEBUG_VALUE: USART_Send:num <- $r1
	@DEBUG_VALUE: USART0_Send:num <- $r1
	.loc	4 0 7 is_stmt 0                 @ C:/Users/philo/AppData/Local/Arm/Packs/Keil/V2M-MPS2_IOTKit_BSP/1.5.0/CMSIS/Driver/USART_V2M-MPS2.c:0:7
	movs	r0, #1
	.loc	4 444 23 is_stmt 1              @ C:/Users/philo/AppData/Local/Arm/Packs/Keil/V2M-MPS2_IOTKit_BSP/1.5.0/CMSIS/Driver/USART_V2M-MPS2.c:444:23
	str	r2, [r3, #28]
	.loc	4 445 23                        @ C:/Users/philo/AppData/Local/Arm/Packs/Keil/V2M-MPS2_IOTKit_BSP/1.5.0/CMSIS/Driver/USART_V2M-MPS2.c:445:23
	str	r1, [r3, #20]
	.loc	4 441 31                        @ C:/Users/philo/AppData/Local/Arm/Packs/Keil/V2M-MPS2_IOTKit_BSP/1.5.0/CMSIS/Driver/USART_V2M-MPS2.c:441:31
	strb	r0, [r3, #4]
	movs	r0, #0
	.loc	4 446 23                        @ C:/Users/philo/AppData/Local/Arm/Packs/Keil/V2M-MPS2_IOTKit_BSP/1.5.0/CMSIS/Driver/USART_V2M-MPS2.c:446:23
	str	r0, [r3, #36]
	.loc	4 449 20                        @ C:/Users/philo/AppData/Local/Arm/Packs/Keil/V2M-MPS2_IOTKit_BSP/1.5.0/CMSIS/Driver/USART_V2M-MPS2.c:449:20
	ldr	r1, [r4, #8]
.Ltmp76:
	@DEBUG_VALUE: USART0_Send:num <- [DW_OP_LLVM_entry_value 1] $r1
	orr	r1, r1, #4
	str	r1, [r4, #8]
	.loc	4 452 22                        @ C:/Users/philo/AppData/Local/Arm/Packs/Keil/V2M-MPS2_IOTKit_BSP/1.5.0/CMSIS/Driver/USART_V2M-MPS2.c:452:22
	ldrb	r1, [r2]
	.loc	4 452 20 is_stmt 0              @ C:/Users/philo/AppData/Local/Arm/Packs/Keil/V2M-MPS2_IOTKit_BSP/1.5.0/CMSIS/Driver/USART_V2M-MPS2.c:452:20
	str	r1, [r4]
.Ltmp77:
	.loc	4 782 111 is_stmt 1             @ C:/Users/philo/AppData/Local/Arm/Packs/Keil/V2M-MPS2_IOTKit_BSP/1.5.0/CMSIS/Driver/USART_V2M-MPS2.c:782:111
	pop	{r4, pc}
.Ltmp78:
.LBB7_6:
	@DEBUG_VALUE: USART0_Send:num <- $r1
	@DEBUG_VALUE: USART0_Send:data <- $r0
	.loc	4 0 111 is_stmt 0               @ C:/Users/philo/AppData/Local/Arm/Packs/Keil/V2M-MPS2_IOTKit_BSP/1.5.0/CMSIS/Driver/USART_V2M-MPS2.c:0:111
	mvn	r0, #4
.Ltmp79:
	@DEBUG_VALUE: USART0_Send:data <- [DW_OP_LLVM_entry_value 1] $r0
	.loc	4 782 111                       @ C:/Users/philo/AppData/Local/Arm/Packs/Keil/V2M-MPS2_IOTKit_BSP/1.5.0/CMSIS/Driver/USART_V2M-MPS2.c:782:111
	pop	{r4, pc}
.Ltmp80:
.LBB7_7:
	@DEBUG_VALUE: USART0_Send:data <- $r2
	@DEBUG_VALUE: USART0_Send:num <- $r1
	.loc	4 0 111                         @ C:/Users/philo/AppData/Local/Arm/Packs/Keil/V2M-MPS2_IOTKit_BSP/1.5.0/CMSIS/Driver/USART_V2M-MPS2.c:0:111
	mvn	r0, #1
	.loc	4 782 111                       @ C:/Users/philo/AppData/Local/Arm/Packs/Keil/V2M-MPS2_IOTKit_BSP/1.5.0/CMSIS/Driver/USART_V2M-MPS2.c:782:111
	pop	{r4, pc}
.Ltmp81:
	.p2align	2
@ %bb.8:
	.loc	4 0 111                         @ C:/Users/philo/AppData/Local/Arm/Packs/Keil/V2M-MPS2_IOTKit_BSP/1.5.0/CMSIS/Driver/USART_V2M-MPS2.c:0:111
__arm_cp.7_0:
	.long	.L_MergedGlobals
.Lcpi_end11:
	.size	__arm_cp.7_0, .Lcpi_end11-__arm_cp.7_0
__arm_cp.7_1:
	.long	1075838976                      @ 0x40200000
.Lcpi_end12:
	.size	__arm_cp.7_1, .Lcpi_end12-__arm_cp.7_1
.Lfunc_end7:
	.size	USART0_Send, .Lfunc_end7-USART0_Send
	.cfi_endproc
	.cantunwind
	.fnend
                                        @ -- End function
	.section	.text.USART0_Receive,"ax",%progbits
	.p2align	2                               @ -- Begin function USART0_Receive
	.type	USART0_Receive,%function
	.code	16                              @ @USART0_Receive
	.thumb_func
USART0_Receive:
.Lfunc_begin8:
	.loc	4 783 0 is_stmt 1               @ C:/Users/philo/AppData/Local/Arm/Packs/Keil/V2M-MPS2_IOTKit_BSP/1.5.0/CMSIS/Driver/USART_V2M-MPS2.c:783:0
	.fnstart
	.cfi_startproc
@ %bb.0:
	@DEBUG_VALUE: USART0_Receive:data <- $r0
	@DEBUG_VALUE: USART0_Receive:num <- $r1
	@DEBUG_VALUE: USART_Receive:data <- $r0
	@DEBUG_VALUE: USART_Receive:num <- $r1
	@DEBUG_VALUE: USART_Receive:num <- $r1
	@DEBUG_VALUE: USART_Receive:data <- $r0
	@DEBUG_VALUE: USART0_Receive:num <- $r1
	@DEBUG_VALUE: USART0_Receive:data <- $r0
	.save	{r4, lr}
	push	{r4, lr}
	.cfi_def_cfa_offset 8
	.cfi_offset lr, -4
	.cfi_offset r4, -8
.Ltmp82:
	.loc	4 471 22 prologue_end           @ C:/Users/philo/AppData/Local/Arm/Packs/Keil/V2M-MPS2_IOTKit_BSP/1.5.0/CMSIS/Driver/USART_V2M-MPS2.c:471:22
	cbz	r0, .LBB8_6
.Ltmp83:
@ %bb.1:
	@DEBUG_VALUE: USART_Receive:num <- $r1
	@DEBUG_VALUE: USART0_Receive:num <- $r1
	@DEBUG_VALUE: USART_Receive:data <- $r0
	@DEBUG_VALUE: USART0_Receive:data <- $r0
	@DEBUG_VALUE: USART0_Receive:data <- $r0
	@DEBUG_VALUE: USART_Receive:data <- $r0
	.loc	4 471 7 is_stmt 0               @ C:/Users/philo/AppData/Local/Arm/Packs/Keil/V2M-MPS2_IOTKit_BSP/1.5.0/CMSIS/Driver/USART_V2M-MPS2.c:471:7
	cbz	r1, .LBB8_6
.Ltmp84:
@ %bb.2:
	@DEBUG_VALUE: USART_Receive:num <- $r1
	@DEBUG_VALUE: USART0_Receive:num <- $r1
	@DEBUG_VALUE: USART_Receive:data <- $r0
	@DEBUG_VALUE: USART0_Receive:data <- $r0
	.loc	4 476 21 is_stmt 1              @ C:/Users/philo/AppData/Local/Arm/Packs/Keil/V2M-MPS2_IOTKit_BSP/1.5.0/CMSIS/Driver/USART_V2M-MPS2.c:476:21
	ldr	r3, __arm_cp.8_0
	mov	r2, r0
.Ltmp85:
	@DEBUG_VALUE: USART_Receive:data <- $r2
	@DEBUG_VALUE: USART0_Receive:data <- $r2
	ldrb	r0, [r3]
.Ltmp86:
	.loc	4 476 7 is_stmt 0               @ C:/Users/philo/AppData/Local/Arm/Packs/Keil/V2M-MPS2_IOTKit_BSP/1.5.0/CMSIS/Driver/USART_V2M-MPS2.c:476:7
	lsls	r0, r0, #29
	itt	pl
	movpl.w	r0, #-1
.Ltmp87:
	.loc	4 783 111 is_stmt 1             @ C:/Users/philo/AppData/Local/Arm/Packs/Keil/V2M-MPS2_IOTKit_BSP/1.5.0/CMSIS/Driver/USART_V2M-MPS2.c:783:111
	poppl	{r4, pc}
.Ltmp88:
.LBB8_3:
	@DEBUG_VALUE: USART0_Receive:data <- $r2
	@DEBUG_VALUE: USART_Receive:data <- $r2
	@DEBUG_VALUE: USART_Receive:num <- $r1
	@DEBUG_VALUE: USART0_Receive:num <- $r1
	.loc	4 482 28                        @ C:/Users/philo/AppData/Local/Arm/Packs/Keil/V2M-MPS2_IOTKit_BSP/1.5.0/CMSIS/Driver/USART_V2M-MPS2.c:482:28
	ldrb	r0, [r3, #8]
	.loc	4 482 43 is_stmt 0              @ C:/Users/philo/AppData/Local/Arm/Packs/Keil/V2M-MPS2_IOTKit_BSP/1.5.0/CMSIS/Driver/USART_V2M-MPS2.c:482:43
	cbnz	r0, .LBB8_7
.Ltmp89:
@ %bb.4:
	@DEBUG_VALUE: USART0_Receive:data <- $r2
	@DEBUG_VALUE: USART_Receive:data <- $r2
	@DEBUG_VALUE: USART_Receive:num <- $r1
	@DEBUG_VALUE: USART0_Receive:num <- $r1
	.loc	4 0 43                          @ C:/Users/philo/AppData/Local/Arm/Packs/Keil/V2M-MPS2_IOTKit_BSP/1.5.0/CMSIS/Driver/USART_V2M-MPS2.c:0:43
	ldr	r4, __arm_cp.8_1
	.loc	4 483 20 is_stmt 1              @ C:/Users/philo/AppData/Local/Arm/Packs/Keil/V2M-MPS2_IOTKit_BSP/1.5.0/CMSIS/Driver/USART_V2M-MPS2.c:483:20
	ldr	r0, [r4]
.Ltmp90:
	.loc	4 482 7                         @ C:/Users/philo/AppData/Local/Arm/Packs/Keil/V2M-MPS2_IOTKit_BSP/1.5.0/CMSIS/Driver/USART_V2M-MPS2.c:482:7
	lsls	r0, r0, #30
	bmi	.LBB8_7
.Ltmp91:
@ %bb.5:
	@DEBUG_VALUE: USART0_Receive:data <- $r2
	@DEBUG_VALUE: USART_Receive:data <- $r2
	@DEBUG_VALUE: USART_Receive:num <- $r1
	@DEBUG_VALUE: USART0_Receive:num <- $r1
	.loc	4 0 7 is_stmt 0                 @ C:/Users/philo/AppData/Local/Arm/Packs/Keil/V2M-MPS2_IOTKit_BSP/1.5.0/CMSIS/Driver/USART_V2M-MPS2.c:0:7
	movs	r0, #1
	.loc	4 494 23 is_stmt 1              @ C:/Users/philo/AppData/Local/Arm/Packs/Keil/V2M-MPS2_IOTKit_BSP/1.5.0/CMSIS/Driver/USART_V2M-MPS2.c:494:23
	str	r2, [r3, #24]
	.loc	4 488 23                        @ C:/Users/philo/AppData/Local/Arm/Packs/Keil/V2M-MPS2_IOTKit_BSP/1.5.0/CMSIS/Driver/USART_V2M-MPS2.c:488:23
	str	r1, [r3, #16]
	.loc	4 498 31                        @ C:/Users/philo/AppData/Local/Arm/Packs/Keil/V2M-MPS2_IOTKit_BSP/1.5.0/CMSIS/Driver/USART_V2M-MPS2.c:498:31
	strb	r0, [r3, #8]
	movs	r0, #0
	.loc	4 495 23                        @ C:/Users/philo/AppData/Local/Arm/Packs/Keil/V2M-MPS2_IOTKit_BSP/1.5.0/CMSIS/Driver/USART_V2M-MPS2.c:495:23
	str	r0, [r3, #32]
	.loc	4 501 20                        @ C:/Users/philo/AppData/Local/Arm/Packs/Keil/V2M-MPS2_IOTKit_BSP/1.5.0/CMSIS/Driver/USART_V2M-MPS2.c:501:20
	ldr	r1, [r4, #4]
.Ltmp92:
	@DEBUG_VALUE: USART0_Receive:num <- [DW_OP_LLVM_entry_value 1] $r1
	orr	r1, r1, #8
	str	r1, [r4, #4]
.Ltmp93:
	.loc	4 783 111                       @ C:/Users/philo/AppData/Local/Arm/Packs/Keil/V2M-MPS2_IOTKit_BSP/1.5.0/CMSIS/Driver/USART_V2M-MPS2.c:783:111
	pop	{r4, pc}
.Ltmp94:
.LBB8_6:
	@DEBUG_VALUE: USART0_Receive:num <- $r1
	@DEBUG_VALUE: USART0_Receive:data <- $r0
	.loc	4 0 111 is_stmt 0               @ C:/Users/philo/AppData/Local/Arm/Packs/Keil/V2M-MPS2_IOTKit_BSP/1.5.0/CMSIS/Driver/USART_V2M-MPS2.c:0:111
	mvn	r0, #4
.Ltmp95:
	@DEBUG_VALUE: USART0_Receive:data <- [DW_OP_LLVM_entry_value 1] $r0
	.loc	4 783 111                       @ C:/Users/philo/AppData/Local/Arm/Packs/Keil/V2M-MPS2_IOTKit_BSP/1.5.0/CMSIS/Driver/USART_V2M-MPS2.c:783:111
	pop	{r4, pc}
.Ltmp96:
.LBB8_7:
	@DEBUG_VALUE: USART0_Receive:data <- $r2
	@DEBUG_VALUE: USART0_Receive:num <- $r1
	.loc	4 0 111                         @ C:/Users/philo/AppData/Local/Arm/Packs/Keil/V2M-MPS2_IOTKit_BSP/1.5.0/CMSIS/Driver/USART_V2M-MPS2.c:0:111
	mvn	r0, #1
	.loc	4 783 111                       @ C:/Users/philo/AppData/Local/Arm/Packs/Keil/V2M-MPS2_IOTKit_BSP/1.5.0/CMSIS/Driver/USART_V2M-MPS2.c:783:111
	pop	{r4, pc}
.Ltmp97:
	.p2align	2
@ %bb.8:
	.loc	4 0 111                         @ C:/Users/philo/AppData/Local/Arm/Packs/Keil/V2M-MPS2_IOTKit_BSP/1.5.0/CMSIS/Driver/USART_V2M-MPS2.c:0:111
__arm_cp.8_0:
	.long	.L_MergedGlobals
.Lcpi_end13:
	.size	__arm_cp.8_0, .Lcpi_end13-__arm_cp.8_0
__arm_cp.8_1:
	.long	1075838980                      @ 0x40200004
.Lcpi_end14:
	.size	__arm_cp.8_1, .Lcpi_end14-__arm_cp.8_1
.Lfunc_end8:
	.size	USART0_Receive, .Lfunc_end8-USART0_Receive
	.cfi_endproc
	.cantunwind
	.fnend
                                        @ -- End function
	.section	.text.USART0_Transfer,"ax",%progbits
	.p2align	1                               @ -- Begin function USART0_Transfer
	.type	USART0_Transfer,%function
	.code	16                              @ @USART0_Transfer
	.thumb_func
USART0_Transfer:
.Lfunc_begin9:
	.loc	4 784 0 is_stmt 1               @ C:/Users/philo/AppData/Local/Arm/Packs/Keil/V2M-MPS2_IOTKit_BSP/1.5.0/CMSIS/Driver/USART_V2M-MPS2.c:784:0
	.fnstart
	.cfi_startproc
@ %bb.0:
	@DEBUG_VALUE: USART0_Transfer:data_out <- $r0
	@DEBUG_VALUE: USART0_Transfer:data_in <- $r1
	@DEBUG_VALUE: USART0_Transfer:num <- $r2
	.loc	4 784 111 prologue_end          @ C:/Users/philo/AppData/Local/Arm/Packs/Keil/V2M-MPS2_IOTKit_BSP/1.5.0/CMSIS/Driver/USART_V2M-MPS2.c:784:111
	mvn	r0, #3
.Ltmp98:
	@DEBUG_VALUE: USART0_Transfer:data_out <- [DW_OP_LLVM_entry_value 1] $r0
	bx	lr
.Ltmp99:
.Lfunc_end9:
	.size	USART0_Transfer, .Lfunc_end9-USART0_Transfer
	.cfi_endproc
	.cantunwind
	.fnend
                                        @ -- End function
	.section	.text.USART0_GetTxCount,"ax",%progbits
	.p2align	2                               @ -- Begin function USART0_GetTxCount
	.type	USART0_GetTxCount,%function
	.code	16                              @ @USART0_GetTxCount
	.thumb_func
USART0_GetTxCount:
.Lfunc_begin10:
	.loc	4 785 0                         @ C:/Users/philo/AppData/Local/Arm/Packs/Keil/V2M-MPS2_IOTKit_BSP/1.5.0/CMSIS/Driver/USART_V2M-MPS2.c:785:0
	.fnstart
	.cfi_startproc
@ %bb.0:
	.loc	4 539 23 prologue_end           @ C:/Users/philo/AppData/Local/Arm/Packs/Keil/V2M-MPS2_IOTKit_BSP/1.5.0/CMSIS/Driver/USART_V2M-MPS2.c:539:23
	ldr	r0, __arm_cp.10_0
	ldr	r0, [r0, #36]
.Ltmp100:
	.loc	4 785 111                       @ C:/Users/philo/AppData/Local/Arm/Packs/Keil/V2M-MPS2_IOTKit_BSP/1.5.0/CMSIS/Driver/USART_V2M-MPS2.c:785:111
	bx	lr
.Ltmp101:
	.p2align	2
@ %bb.1:
	.loc	4 0 111 is_stmt 0               @ C:/Users/philo/AppData/Local/Arm/Packs/Keil/V2M-MPS2_IOTKit_BSP/1.5.0/CMSIS/Driver/USART_V2M-MPS2.c:0:111
__arm_cp.10_0:
	.long	.L_MergedGlobals
.Lcpi_end15:
	.size	__arm_cp.10_0, .Lcpi_end15-__arm_cp.10_0
.Lfunc_end10:
	.size	USART0_GetTxCount, .Lfunc_end10-USART0_GetTxCount
	.cfi_endproc
	.cantunwind
	.fnend
                                        @ -- End function
	.section	.text.USART0_GetRxCount,"ax",%progbits
	.p2align	2                               @ -- Begin function USART0_GetRxCount
	.type	USART0_GetRxCount,%function
	.code	16                              @ @USART0_GetRxCount
	.thumb_func
USART0_GetRxCount:
.Lfunc_begin11:
	.loc	4 786 0 is_stmt 1               @ C:/Users/philo/AppData/Local/Arm/Packs/Keil/V2M-MPS2_IOTKit_BSP/1.5.0/CMSIS/Driver/USART_V2M-MPS2.c:786:0
	.fnstart
	.cfi_startproc
@ %bb.0:
	.loc	4 551 23 prologue_end           @ C:/Users/philo/AppData/Local/Arm/Packs/Keil/V2M-MPS2_IOTKit_BSP/1.5.0/CMSIS/Driver/USART_V2M-MPS2.c:551:23
	ldr	r0, __arm_cp.11_0
	ldr	r0, [r0, #32]
.Ltmp102:
	.loc	4 786 111                       @ C:/Users/philo/AppData/Local/Arm/Packs/Keil/V2M-MPS2_IOTKit_BSP/1.5.0/CMSIS/Driver/USART_V2M-MPS2.c:786:111
	bx	lr
.Ltmp103:
	.p2align	2
@ %bb.1:
	.loc	4 0 111 is_stmt 0               @ C:/Users/philo/AppData/Local/Arm/Packs/Keil/V2M-MPS2_IOTKit_BSP/1.5.0/CMSIS/Driver/USART_V2M-MPS2.c:0:111
__arm_cp.11_0:
	.long	.L_MergedGlobals
.Lcpi_end16:
	.size	__arm_cp.11_0, .Lcpi_end16-__arm_cp.11_0
.Lfunc_end11:
	.size	USART0_GetRxCount, .Lfunc_end11-USART0_GetRxCount
	.cfi_endproc
	.cantunwind
	.fnend
                                        @ -- End function
	.section	.text.USART0_Control,"ax",%progbits
	.p2align	2                               @ -- Begin function USART0_Control
	.type	USART0_Control,%function
	.code	16                              @ @USART0_Control
	.thumb_func
USART0_Control:
.Lfunc_begin12:
	.loc	4 787 0 is_stmt 1               @ C:/Users/philo/AppData/Local/Arm/Packs/Keil/V2M-MPS2_IOTKit_BSP/1.5.0/CMSIS/Driver/USART_V2M-MPS2.c:787:0
	.fnstart
	.cfi_startproc
@ %bb.0:
	@DEBUG_VALUE: USART0_Control:control <- $r0
	@DEBUG_VALUE: USART0_Control:arg <- $r1
	@DEBUG_VALUE: USART_Control:control <- $r0
	@DEBUG_VALUE: USART_Control:arg <- $r1
	.save	{r4, r5, r7, lr}
	push	{r4, r5, r7, lr}
	.cfi_def_cfa_offset 16
	.cfi_offset lr, -4
	.cfi_offset r7, -8
	.cfi_offset r5, -12
	.cfi_offset r4, -16
.Ltmp104:
	.loc	4 569 21 prologue_end           @ C:/Users/philo/AppData/Local/Arm/Packs/Keil/V2M-MPS2_IOTKit_BSP/1.5.0/CMSIS/Driver/USART_V2M-MPS2.c:569:21
	ldr	r3, __arm_cp.12_0
	mov	r2, r0
	@DEBUG_VALUE: USART_Control:arg <- $r1
.Ltmp105:
	@DEBUG_VALUE: USART_Control:control <- $r2
	@DEBUG_VALUE: USART0_Control:arg <- $r1
	@DEBUG_VALUE: USART0_Control:control <- $r2
	ldrb	r4, [r3]
.Ltmp106:
	.loc	4 569 7 is_stmt 0               @ C:/Users/philo/AppData/Local/Arm/Packs/Keil/V2M-MPS2_IOTKit_BSP/1.5.0/CMSIS/Driver/USART_V2M-MPS2.c:569:7
	lsls	r0, r4, #30
	itt	pl
	movpl.w	r0, #-1
.Ltmp107:
	.loc	4 787 111 is_stmt 1             @ C:/Users/philo/AppData/Local/Arm/Packs/Keil/V2M-MPS2_IOTKit_BSP/1.5.0/CMSIS/Driver/USART_V2M-MPS2.c:787:111
	poppl	{r4, r5, r7, pc}
.Ltmp108:
.LBB12_1:
	@DEBUG_VALUE: USART0_Control:control <- $r2
	@DEBUG_VALUE: USART_Control:control <- $r2
	@DEBUG_VALUE: USART_Control:arg <- $r1
	@DEBUG_VALUE: USART0_Control:arg <- $r1
	.loc	4 0 111 is_stmt 0               @ C:/Users/philo/AppData/Local/Arm/Packs/Keil/V2M-MPS2_IOTKit_BSP/1.5.0/CMSIS/Driver/USART_V2M-MPS2.c:0:111
	mvn	r0, #20
.Ltmp109:
	.loc	4 574 3 is_stmt 1               @ C:/Users/philo/AppData/Local/Arm/Packs/Keil/V2M-MPS2_IOTKit_BSP/1.5.0/CMSIS/Driver/USART_V2M-MPS2.c:574:3
	uxtab	r5, r0, r2
	cmp	r5, #5
	bhi	.LBB12_5
.Ltmp110:
@ %bb.2:
	@DEBUG_VALUE: USART0_Control:control <- $r2
	@DEBUG_VALUE: USART_Control:control <- $r2
	@DEBUG_VALUE: USART_Control:arg <- $r1
	@DEBUG_VALUE: USART0_Control:arg <- $r1
	.loc	4 0 3 is_stmt 0                 @ C:/Users/philo/AppData/Local/Arm/Packs/Keil/V2M-MPS2_IOTKit_BSP/1.5.0/CMSIS/Driver/USART_V2M-MPS2.c:0:3
	mvn	r0, #3
.LCPI12_3:
	tbb	[pc, r5]
.Ltmp111:
@ %bb.3:
.LJTI12_0:
	.byte	(.LBB12_15-(.LCPI12_3+4))/2
	.byte	(.LBB12_16-(.LCPI12_3+4))/2
	.byte	(.LBB12_4-(.LCPI12_3+4))/2
	.byte	(.LBB12_19-(.LCPI12_3+4))/2
	.byte	(.LBB12_20-(.LCPI12_3+4))/2
	.byte	(.LBB12_4-(.LCPI12_3+4))/2
	.p2align	1
.LBB12_4:
.Ltmp112:
	@DEBUG_VALUE: USART0_Control:arg <- $r1
	.loc	4 787 111 is_stmt 1             @ C:/Users/philo/AppData/Local/Arm/Packs/Keil/V2M-MPS2_IOTKit_BSP/1.5.0/CMSIS/Driver/USART_V2M-MPS2.c:787:111
	pop	{r4, r5, r7, pc}
.Ltmp113:
.LBB12_5:
	@DEBUG_VALUE: USART0_Control:control <- $r2
	@DEBUG_VALUE: USART_Control:control <- $r2
	@DEBUG_VALUE: USART_Control:arg <- $r1
	@DEBUG_VALUE: USART0_Control:arg <- $r1
	.loc	4 0 111 is_stmt 0               @ C:/Users/philo/AppData/Local/Arm/Packs/Keil/V2M-MPS2_IOTKit_BSP/1.5.0/CMSIS/Driver/USART_V2M-MPS2.c:0:111
	ldrb	r5, [r3, #8]
	mvn	r0, #1
.Ltmp114:
	.loc	4 617 43 is_stmt 1              @ C:/Users/philo/AppData/Local/Arm/Packs/Keil/V2M-MPS2_IOTKit_BSP/1.5.0/CMSIS/Driver/USART_V2M-MPS2.c:617:43
	cmp	r5, #0
	bne	.LBB12_4
.Ltmp115:
@ %bb.6:
	@DEBUG_VALUE: USART0_Control:control <- $r2
	@DEBUG_VALUE: USART_Control:control <- $r2
	@DEBUG_VALUE: USART_Control:arg <- $r1
	@DEBUG_VALUE: USART0_Control:arg <- $r1
	.loc	4 0 0 is_stmt 0                 @ C:/Users/philo/AppData/Local/Arm/Packs/Keil/V2M-MPS2_IOTKit_BSP/1.5.0/CMSIS/Driver/USART_V2M-MPS2.c:0:0
	ldrb	r5, [r3, #4]
	.loc	4 617 43                        @ C:/Users/philo/AppData/Local/Arm/Packs/Keil/V2M-MPS2_IOTKit_BSP/1.5.0/CMSIS/Driver/USART_V2M-MPS2.c:617:43
	cmp	r5, #0
	bne	.LBB12_4
.Ltmp116:
@ %bb.7:
	@DEBUG_VALUE: USART0_Control:control <- $r2
	@DEBUG_VALUE: USART_Control:control <- $r2
	@DEBUG_VALUE: USART_Control:arg <- $r1
	@DEBUG_VALUE: USART0_Control:arg <- $r1
	.loc	4 0 43                          @ C:/Users/philo/AppData/Local/Arm/Packs/Keil/V2M-MPS2_IOTKit_BSP/1.5.0/CMSIS/Driver/USART_V2M-MPS2.c:0:43
	ldr	r0, __arm_cp.12_1
	.loc	4 619 20 is_stmt 1              @ C:/Users/philo/AppData/Local/Arm/Packs/Keil/V2M-MPS2_IOTKit_BSP/1.5.0/CMSIS/Driver/USART_V2M-MPS2.c:619:20
	ldr	r5, [r0, #-4]
.Ltmp117:
	.loc	4 617 7                         @ C:/Users/philo/AppData/Local/Arm/Packs/Keil/V2M-MPS2_IOTKit_BSP/1.5.0/CMSIS/Driver/USART_V2M-MPS2.c:617:7
	lsls	r5, r5, #30
	itt	ne
	mvnne	r0, #1
.Ltmp118:
	.loc	4 787 111                       @ C:/Users/philo/AppData/Local/Arm/Packs/Keil/V2M-MPS2_IOTKit_BSP/1.5.0/CMSIS/Driver/USART_V2M-MPS2.c:787:111
	popne	{r4, r5, r7, pc}
.Ltmp119:
.LBB12_8:
	@DEBUG_VALUE: USART0_Control:control <- $r2
	@DEBUG_VALUE: USART_Control:control <- $r2
	@DEBUG_VALUE: USART_Control:arg <- $r1
	@DEBUG_VALUE: USART0_Control:arg <- $r1
	.loc	4 0 111 is_stmt 0               @ C:/Users/philo/AppData/Local/Arm/Packs/Keil/V2M-MPS2_IOTKit_BSP/1.5.0/CMSIS/Driver/USART_V2M-MPS2.c:0:111
	uxtb	r5, r2
.Ltmp120:
	.loc	4 623 3 is_stmt 1               @ C:/Users/philo/AppData/Local/Arm/Packs/Keil/V2M-MPS2_IOTKit_BSP/1.5.0/CMSIS/Driver/USART_V2M-MPS2.c:623:3
	cmp	r5, #1
	itt	ne
	mvnne	r0, #3
.Ltmp121:
	.loc	4 787 111                       @ C:/Users/philo/AppData/Local/Arm/Packs/Keil/V2M-MPS2_IOTKit_BSP/1.5.0/CMSIS/Driver/USART_V2M-MPS2.c:787:111
	popne	{r4, r5, r7, pc}
.Ltmp122:
.LBB12_9:
	@DEBUG_VALUE: USART0_Control:control <- $r2
	@DEBUG_VALUE: USART_Control:control <- $r2
	@DEBUG_VALUE: USART_Control:arg <- $r1
	@DEBUG_VALUE: USART0_Control:arg <- $r1
	.loc	4 630 3                         @ C:/Users/philo/AppData/Local/Arm/Packs/Keil/V2M-MPS2_IOTKit_BSP/1.5.0/CMSIS/Driver/USART_V2M-MPS2.c:630:3
	tst.w	r2, #1792
	itt	ne
	mvnne	r0, #8
.Ltmp123:
	.loc	4 787 111                       @ C:/Users/philo/AppData/Local/Arm/Packs/Keil/V2M-MPS2_IOTKit_BSP/1.5.0/CMSIS/Driver/USART_V2M-MPS2.c:787:111
	popne	{r4, r5, r7, pc}
.Ltmp124:
.LBB12_10:
	@DEBUG_VALUE: USART0_Control:control <- $r2
	@DEBUG_VALUE: USART_Control:control <- $r2
	@DEBUG_VALUE: USART_Control:arg <- $r1
	@DEBUG_VALUE: USART0_Control:arg <- $r1
	.loc	4 636 3                         @ C:/Users/philo/AppData/Local/Arm/Packs/Keil/V2M-MPS2_IOTKit_BSP/1.5.0/CMSIS/Driver/USART_V2M-MPS2.c:636:3
	tst.w	r2, #12288
	itt	ne
	mvnne	r0, #9
.Ltmp125:
	.loc	4 787 111                       @ C:/Users/philo/AppData/Local/Arm/Packs/Keil/V2M-MPS2_IOTKit_BSP/1.5.0/CMSIS/Driver/USART_V2M-MPS2.c:787:111
	popne	{r4, r5, r7, pc}
.Ltmp126:
.LBB12_11:
	@DEBUG_VALUE: USART0_Control:control <- $r2
	@DEBUG_VALUE: USART_Control:control <- $r2
	@DEBUG_VALUE: USART_Control:arg <- $r1
	@DEBUG_VALUE: USART0_Control:arg <- $r1
	.loc	4 642 3                         @ C:/Users/philo/AppData/Local/Arm/Packs/Keil/V2M-MPS2_IOTKit_BSP/1.5.0/CMSIS/Driver/USART_V2M-MPS2.c:642:3
	tst.w	r2, #49152
	itt	ne
	mvnne	r0, #10
.Ltmp127:
	.loc	4 787 111                       @ C:/Users/philo/AppData/Local/Arm/Packs/Keil/V2M-MPS2_IOTKit_BSP/1.5.0/CMSIS/Driver/USART_V2M-MPS2.c:787:111
	popne	{r4, r5, r7, pc}
.Ltmp128:
.LBB12_12:
	@DEBUG_VALUE: USART0_Control:control <- $r2
	@DEBUG_VALUE: USART_Control:control <- $r2
	@DEBUG_VALUE: USART_Control:arg <- $r1
	@DEBUG_VALUE: USART0_Control:arg <- $r1
	.loc	4 648 3                         @ C:/Users/philo/AppData/Local/Arm/Packs/Keil/V2M-MPS2_IOTKit_BSP/1.5.0/CMSIS/Driver/USART_V2M-MPS2.c:648:3
	tst.w	r2, #196608
	itt	ne
	mvnne	r0, #11
.Ltmp129:
	.loc	4 787 111                       @ C:/Users/philo/AppData/Local/Arm/Packs/Keil/V2M-MPS2_IOTKit_BSP/1.5.0/CMSIS/Driver/USART_V2M-MPS2.c:787:111
	popne	{r4, r5, r7, pc}
.Ltmp130:
.LBB12_13:
	@DEBUG_VALUE: USART0_Control:control <- $r2
	@DEBUG_VALUE: USART_Control:control <- $r2
	@DEBUG_VALUE: USART_Control:arg <- $r1
	@DEBUG_VALUE: USART0_Control:arg <- $r1
	.loc	4 654 8                         @ C:/Users/philo/AppData/Local/Arm/Packs/Keil/V2M-MPS2_IOTKit_BSP/1.5.0/CMSIS/Driver/USART_V2M-MPS2.c:654:8
	ldr	r2, __arm_cp.12_2
.Ltmp131:
	ldr	r2, [r2]
	.loc	4 654 23 is_stmt 0              @ C:/Users/philo/AppData/Local/Arm/Packs/Keil/V2M-MPS2_IOTKit_BSP/1.5.0/CMSIS/Driver/USART_V2M-MPS2.c:654:23
	udiv	r1, r2, r1
.Ltmp132:
	@DEBUG_VALUE: USART0_Control:arg <- [DW_OP_LLVM_entry_value 1] $r1
	.loc	4 654 7                         @ C:/Users/philo/AppData/Local/Arm/Packs/Keil/V2M-MPS2_IOTKit_BSP/1.5.0/CMSIS/Driver/USART_V2M-MPS2.c:654:7
	cmp	r1, #16
	itt	lo
	mvnlo	r0, #7
.Ltmp133:
	.loc	4 787 111 is_stmt 1             @ C:/Users/philo/AppData/Local/Arm/Packs/Keil/V2M-MPS2_IOTKit_BSP/1.5.0/CMSIS/Driver/USART_V2M-MPS2.c:787:111
	poplo	{r4, r5, r7, pc}
.Ltmp134:
.LBB12_14:
	@DEBUG_VALUE: USART0_Control:arg <- [DW_OP_LLVM_entry_value 1] $r1
	.loc	4 657 25                        @ C:/Users/philo/AppData/Local/Arm/Packs/Keil/V2M-MPS2_IOTKit_BSP/1.5.0/CMSIS/Driver/USART_V2M-MPS2.c:657:25
	str	r1, [r0, #8]
.Ltmp135:
	.loc	4 660 22                        @ C:/Users/philo/AppData/Local/Arm/Packs/Keil/V2M-MPS2_IOTKit_BSP/1.5.0/CMSIS/Driver/USART_V2M-MPS2.c:660:22
	orr	r0, r4, #4
	strb	r0, [r3]
	b	.LBB12_18
.Ltmp136:
.LBB12_15:
	@DEBUG_VALUE: USART_Control:arg <- $r1
	@DEBUG_VALUE: USART0_Control:arg <- $r1
	.loc	4 602 26                        @ C:/Users/philo/AppData/Local/Arm/Packs/Keil/V2M-MPS2_IOTKit_BSP/1.5.0/CMSIS/Driver/USART_V2M-MPS2.c:602:26
	orr	r0, r4, #8
	strb	r0, [r3]
	.loc	4 604 33                        @ C:/Users/philo/AppData/Local/Arm/Packs/Keil/V2M-MPS2_IOTKit_BSP/1.5.0/CMSIS/Driver/USART_V2M-MPS2.c:604:33
	and	r0, r1, #1
	ldr	r1, __arm_cp.12_1
.Ltmp137:
	@DEBUG_VALUE: USART0_Control:arg <- [DW_OP_LLVM_entry_value 1] $r1
	.loc	4 604 24 is_stmt 0              @ C:/Users/philo/AppData/Local/Arm/Packs/Keil/V2M-MPS2_IOTKit_BSP/1.5.0/CMSIS/Driver/USART_V2M-MPS2.c:604:24
	ldr	r2, [r1]
	orrs	r0, r2
	b	.LBB12_17
.Ltmp138:
.LBB12_16:
	@DEBUG_VALUE: USART_Control:arg <- $r1
	@DEBUG_VALUE: USART0_Control:arg <- $r1
	.loc	4 609 26 is_stmt 1              @ C:/Users/philo/AppData/Local/Arm/Packs/Keil/V2M-MPS2_IOTKit_BSP/1.5.0/CMSIS/Driver/USART_V2M-MPS2.c:609:26
	orr	r0, r4, #16
	strb	r0, [r3]
	.loc	4 611 39                        @ C:/Users/philo/AppData/Local/Arm/Packs/Keil/V2M-MPS2_IOTKit_BSP/1.5.0/CMSIS/Driver/USART_V2M-MPS2.c:611:39
	and	r0, r1, #1
	ldr	r1, __arm_cp.12_1
.Ltmp139:
	@DEBUG_VALUE: USART0_Control:arg <- [DW_OP_LLVM_entry_value 1] $r1
	.loc	4 611 24 is_stmt 0              @ C:/Users/philo/AppData/Local/Arm/Packs/Keil/V2M-MPS2_IOTKit_BSP/1.5.0/CMSIS/Driver/USART_V2M-MPS2.c:611:24
	ldr	r2, [r1]
	orr.w	r0, r2, r0, lsl #1
.Ltmp140:
.LBB12_17:
	@DEBUG_VALUE: USART0_Control:arg <- [DW_OP_LLVM_entry_value 1] $r1
	.loc	4 0 0                           @ C:/Users/philo/AppData/Local/Arm/Packs/Keil/V2M-MPS2_IOTKit_BSP/1.5.0/CMSIS/Driver/USART_V2M-MPS2.c:0:0
	str	r0, [r1]
.Ltmp141:
.LBB12_18:
	@DEBUG_VALUE: USART0_Control:arg <- [DW_OP_LLVM_entry_value 1] $r1
	movs	r0, #0
	.loc	4 787 111 is_stmt 1             @ C:/Users/philo/AppData/Local/Arm/Packs/Keil/V2M-MPS2_IOTKit_BSP/1.5.0/CMSIS/Driver/USART_V2M-MPS2.c:787:111
	pop	{r4, r5, r7, pc}
.Ltmp142:
.LBB12_19:
	@DEBUG_VALUE: USART_Control:arg <- $r1
	@DEBUG_VALUE: USART0_Control:arg <- $r1
	.loc	4 0 111 is_stmt 0               @ C:/Users/philo/AppData/Local/Arm/Packs/Keil/V2M-MPS2_IOTKit_BSP/1.5.0/CMSIS/Driver/USART_V2M-MPS2.c:0:111
	ldr	r0, __arm_cp.12_1
.Ltmp143:
	.loc	4 582 24 is_stmt 1              @ C:/Users/philo/AppData/Local/Arm/Packs/Keil/V2M-MPS2_IOTKit_BSP/1.5.0/CMSIS/Driver/USART_V2M-MPS2.c:582:24
	ldr	r1, [r0]
.Ltmp144:
	@DEBUG_VALUE: USART0_Control:arg <- [DW_OP_LLVM_entry_value 1] $r1
	bic	r1, r1, #4
	str	r1, [r0]
	movs	r0, #0
	.loc	4 584 35                        @ C:/Users/philo/AppData/Local/Arm/Packs/Keil/V2M-MPS2_IOTKit_BSP/1.5.0/CMSIS/Driver/USART_V2M-MPS2.c:584:35
	strb	r0, [r3, #4]
.Ltmp145:
	.loc	4 787 111                       @ C:/Users/philo/AppData/Local/Arm/Packs/Keil/V2M-MPS2_IOTKit_BSP/1.5.0/CMSIS/Driver/USART_V2M-MPS2.c:787:111
	pop	{r4, r5, r7, pc}
.Ltmp146:
.LBB12_20:
	@DEBUG_VALUE: USART_Control:arg <- $r1
	@DEBUG_VALUE: USART0_Control:arg <- $r1
	.loc	4 0 111 is_stmt 0               @ C:/Users/philo/AppData/Local/Arm/Packs/Keil/V2M-MPS2_IOTKit_BSP/1.5.0/CMSIS/Driver/USART_V2M-MPS2.c:0:111
	ldr	r0, __arm_cp.12_1
.Ltmp147:
	.loc	4 590 24 is_stmt 1              @ C:/Users/philo/AppData/Local/Arm/Packs/Keil/V2M-MPS2_IOTKit_BSP/1.5.0/CMSIS/Driver/USART_V2M-MPS2.c:590:24
	ldr	r1, [r0]
.Ltmp148:
	@DEBUG_VALUE: USART0_Control:arg <- [DW_OP_LLVM_entry_value 1] $r1
	bic	r1, r1, #8
	str	r1, [r0]
	movs	r0, #0
	.loc	4 592 35                        @ C:/Users/philo/AppData/Local/Arm/Packs/Keil/V2M-MPS2_IOTKit_BSP/1.5.0/CMSIS/Driver/USART_V2M-MPS2.c:592:35
	strb	r0, [r3, #8]
.Ltmp149:
	.loc	4 787 111                       @ C:/Users/philo/AppData/Local/Arm/Packs/Keil/V2M-MPS2_IOTKit_BSP/1.5.0/CMSIS/Driver/USART_V2M-MPS2.c:787:111
	pop	{r4, r5, r7, pc}
.Ltmp150:
	.p2align	2
@ %bb.21:
	.loc	4 0 111 is_stmt 0               @ C:/Users/philo/AppData/Local/Arm/Packs/Keil/V2M-MPS2_IOTKit_BSP/1.5.0/CMSIS/Driver/USART_V2M-MPS2.c:0:111
__arm_cp.12_0:
	.long	.L_MergedGlobals
.Lcpi_end17:
	.size	__arm_cp.12_0, .Lcpi_end17-__arm_cp.12_0
__arm_cp.12_1:
	.long	1075838984                      @ 0x40200008
.Lcpi_end18:
	.size	__arm_cp.12_1, .Lcpi_end18-__arm_cp.12_1
__arm_cp.12_2:
	.long	SystemCoreClock
.Lcpi_end19:
	.size	__arm_cp.12_2, .Lcpi_end19-__arm_cp.12_2
.Lfunc_end12:
	.size	USART0_Control, .Lfunc_end12-USART0_Control
	.cfi_endproc
	.cantunwind
	.fnend
                                        @ -- End function
	.section	.text.USART0_GetStatus,"ax",%progbits
	.p2align	2                               @ -- Begin function USART0_GetStatus
	.type	USART0_GetStatus,%function
	.code	16                              @ @USART0_GetStatus
	.thumb_func
USART0_GetStatus:
.Lfunc_begin13:
	.loc	4 788 0 is_stmt 1               @ C:/Users/philo/AppData/Local/Arm/Packs/Keil/V2M-MPS2_IOTKit_BSP/1.5.0/CMSIS/Driver/USART_V2M-MPS2.c:788:0
	.fnstart
	.cfi_startproc
@ %bb.0:
	.loc	4 674 49 prologue_end           @ C:/Users/philo/AppData/Local/Arm/Packs/Keil/V2M-MPS2_IOTKit_BSP/1.5.0/CMSIS/Driver/USART_V2M-MPS2.c:674:49
	ldr	r1, __arm_cp.13_0
	ldrb	r0, [r1, #4]
.Ltmp151:
	@DEBUG_VALUE: USART_GetStatus:status <- [DW_OP_LLVM_convert 1 7, DW_OP_LLVM_convert 8 7, DW_OP_LLVM_convert 8 7, DW_OP_LLVM_convert 32 7, DW_OP_stack_value] undef
	.loc	4 675 49                        @ C:/Users/philo/AppData/Local/Arm/Packs/Keil/V2M-MPS2_IOTKit_BSP/1.5.0/CMSIS/Driver/USART_V2M-MPS2.c:675:49
	ldrb	r1, [r1, #8]
	bfi	r0, r1, #1, #1
.Ltmp152:
	@DEBUG_VALUE: USART_GetStatus:status <- $r0
	.loc	4 788 111                       @ C:/Users/philo/AppData/Local/Arm/Packs/Keil/V2M-MPS2_IOTKit_BSP/1.5.0/CMSIS/Driver/USART_V2M-MPS2.c:788:111
	bx	lr
.Ltmp153:
	.p2align	2
@ %bb.1:
	.loc	4 0 111 is_stmt 0               @ C:/Users/philo/AppData/Local/Arm/Packs/Keil/V2M-MPS2_IOTKit_BSP/1.5.0/CMSIS/Driver/USART_V2M-MPS2.c:0:111
__arm_cp.13_0:
	.long	.L_MergedGlobals
.Lcpi_end20:
	.size	__arm_cp.13_0, .Lcpi_end20-__arm_cp.13_0
.Lfunc_end13:
	.size	USART0_GetStatus, .Lfunc_end13-USART0_GetStatus
	.cfi_endproc
	.cantunwind
	.fnend
                                        @ -- End function
	.section	.text.USART0_SetModemControl,"ax",%progbits
	.p2align	1                               @ -- Begin function USART0_SetModemControl
	.type	USART0_SetModemControl,%function
	.code	16                              @ @USART0_SetModemControl
	.thumb_func
USART0_SetModemControl:
.Lfunc_begin14:
	.loc	4 789 0 is_stmt 1               @ C:/Users/philo/AppData/Local/Arm/Packs/Keil/V2M-MPS2_IOTKit_BSP/1.5.0/CMSIS/Driver/USART_V2M-MPS2.c:789:0
	.fnstart
	.cfi_startproc
@ %bb.0:
	@DEBUG_VALUE: USART0_SetModemControl:control <- $r0
	.loc	4 789 111 prologue_end          @ C:/Users/philo/AppData/Local/Arm/Packs/Keil/V2M-MPS2_IOTKit_BSP/1.5.0/CMSIS/Driver/USART_V2M-MPS2.c:789:111
	mvn	r0, #3
.Ltmp154:
	@DEBUG_VALUE: USART0_SetModemControl:control <- [DW_OP_LLVM_entry_value 1] $r0
	bx	lr
.Ltmp155:
.Lfunc_end14:
	.size	USART0_SetModemControl, .Lfunc_end14-USART0_SetModemControl
	.cfi_endproc
	.cantunwind
	.fnend
                                        @ -- End function
	.section	.text.USART0_GetModemStatus,"ax",%progbits
	.p2align	1                               @ -- Begin function USART0_GetModemStatus
	.type	USART0_GetModemStatus,%function
	.code	16                              @ @USART0_GetModemStatus
	.thumb_func
USART0_GetModemStatus:
.Lfunc_begin15:
	.loc	4 790 0                         @ C:/Users/philo/AppData/Local/Arm/Packs/Keil/V2M-MPS2_IOTKit_BSP/1.5.0/CMSIS/Driver/USART_V2M-MPS2.c:790:0
	.fnstart
	.cfi_startproc
@ %bb.0:
	.loc	4 790 111 prologue_end          @ C:/Users/philo/AppData/Local/Arm/Packs/Keil/V2M-MPS2_IOTKit_BSP/1.5.0/CMSIS/Driver/USART_V2M-MPS2.c:790:111
	movs	r0, #0
	bx	lr
.Ltmp156:
.Lfunc_end15:
	.size	USART0_GetModemStatus, .Lfunc_end15-USART0_GetModemStatus
	.cfi_endproc
	.cantunwind
	.fnend
                                        @ -- End function
	.hidden	Driver_USART0                   @ @Driver_USART0
	.type	Driver_USART0,%object
	.section	.rodata.Driver_USART0,"a",%progbits
	.globl	Driver_USART0
	.p2align	2
Driver_USART0:
	.long	USARTx_GetVersion
	.long	USART0_GetCapabilities
	.long	USART0_Initialize
	.long	USART0_Uninitialize
	.long	USART0_PowerControl
	.long	USART0_Send
	.long	USART0_Receive
	.long	USART0_Transfer
	.long	USART0_GetTxCount
	.long	USART0_GetRxCount
	.long	USART0_Control
	.long	USART0_GetStatus
	.long	USART0_SetModemControl
	.long	USART0_GetModemStatus
	.size	Driver_USART0, 56

	.type	.L_MergedGlobals,%object        @ @_MergedGlobals
	.section	.bss..L_MergedGlobals,"aw",%nobits
	.p2align	2
.L_MergedGlobals:
	.zero	40
	.size	.L_MergedGlobals, 40

	.section	".note.GNU-stack","",%progbits
	.eabi_attribute	30, 4	@ Tag_ABI_optimization_goals
	.ARM_attribute	16, 1	@ Tag_AV_eba